
test_3.elf      檔案格式 elf32-littleriscv


.text 區段的反組譯：

800c1000 <atomic_or>:
800c1000:	fd010113          	addi	sp,sp,-48
800c1004:	02812623          	sw	s0,44(sp)
800c1008:	03010413          	addi	s0,sp,48
800c100c:	fca42e23          	sw	a0,-36(s0)
800c1010:	fcb42c23          	sw	a1,-40(s0)
800c1014:	fdc42783          	lw	a5,-36(s0)
800c1018:	0007a783          	lw	a5,0(a5)
800c101c:	fef42623          	sw	a5,-20(s0)
800c1020:	fdc42683          	lw	a3,-36(s0)
800c1024:	fd842783          	lw	a5,-40(s0)
800c1028:	fdc42703          	lw	a4,-36(s0)
800c102c:	40f6a7af          	amoor.w	a5,a5,(a3)
800c1030:	fef42623          	sw	a5,-20(s0)
800c1034:	00000013          	nop
800c1038:	02c12403          	lw	s0,44(sp)
800c103c:	03010113          	addi	sp,sp,48
800c1040:	00008067          	ret

800c1044 <generate_answer>:
800c1044:	801517b7          	lui	a5,0x80151
800c1048:	04c7a283          	lw	t0,76(a5) # 8015104c <__stack_top+0xff44f84c>
800c104c:	ff010113          	addi	sp,sp,-16
800c1050:	801517b7          	lui	a5,0x80151
800c1054:	00912623          	sw	s1,12(sp)
800c1058:	0487a483          	lw	s1,72(a5) # 80151048 <__stack_top+0xff44f848>
800c105c:	801517b7          	lui	a5,0x80151
800c1060:	0407af83          	lw	t6,64(a5) # 80151040 <__stack_top+0xff44f840>
800c1064:	40028813          	addi	a6,t0,1024
800c1068:	00000f13          	li	t5,0
800c106c:	10000e93          	li	t4,256
800c1070:	000103b7          	lui	t2,0x10
800c1074:	002f1e13          	slli	t3,t5,0x2
800c1078:	00048313          	mv	t1,s1
800c107c:	005e0e33          	add	t3,t3,t0
800c1080:	000f8513          	mv	a0,t6
800c1084:	00000893          	li	a7,0
800c1088:	00052603          	lw	a2,0(a0)
800c108c:	00030693          	mv	a3,t1
800c1090:	000e0793          	mv	a5,t3
800c1094:	0007a703          	lw	a4,0(a5)
800c1098:	0006a583          	lw	a1,0(a3)
800c109c:	00478793          	addi	a5,a5,4
800c10a0:	40068693          	addi	a3,a3,1024
800c10a4:	02b70733          	mul	a4,a4,a1
800c10a8:	00e60633          	add	a2,a2,a4
800c10ac:	00c52023          	sw	a2,0(a0)
800c10b0:	fef812e3          	bne	a6,a5,800c1094 <generate_answer+0x50>
800c10b4:	00188893          	addi	a7,a7,1
800c10b8:	00450513          	addi	a0,a0,4
800c10bc:	00430313          	addi	t1,t1,4
800c10c0:	fdd894e3          	bne	a7,t4,800c1088 <generate_answer+0x44>
800c10c4:	100f0f13          	addi	t5,t5,256
800c10c8:	40080813          	addi	a6,a6,1024
800c10cc:	400f8f93          	addi	t6,t6,1024
800c10d0:	fa7f12e3          	bne	t5,t2,800c1074 <generate_answer+0x30>
800c10d4:	00c12483          	lw	s1,12(sp)
800c10d8:	01010113          	addi	sp,sp,16
800c10dc:	00008067          	ret

800c10e0 <matrix_multiply>:
800c10e0:	801517b7          	lui	a5,0x80151
800c10e4:	04c7a383          	lw	t2,76(a5) # 8015104c <__stack_top+0xff44f84c>
800c10e8:	801517b7          	lui	a5,0x80151
800c10ec:	0447af83          	lw	t6,68(a5) # 80151044 <__stack_top+0xff44f844>
800c10f0:	ff010113          	addi	sp,sp,-16
800c10f4:	80151737          	lui	a4,0x80151
800c10f8:	00912623          	sw	s1,12(sp)
800c10fc:	04872483          	lw	s1,72(a4) # 80151048 <__stack_top+0xff44f848>
800c1100:	01051793          	slli	a5,a0,0x10
800c1104:	00e51f13          	slli	t5,a0,0xe
800c1108:	40038813          	addi	a6,t2,1024 # 10400 <__stack_size+0xfc00>
800c110c:	000042b7          	lui	t0,0x4
800c1110:	00f80833          	add	a6,a6,a5
800c1114:	00ff8fb3          	add	t6,t6,a5
800c1118:	005f02b3          	add	t0,t5,t0
800c111c:	10000e93          	li	t4,256
800c1120:	002f1e13          	slli	t3,t5,0x2
800c1124:	00048313          	mv	t1,s1
800c1128:	007e0e33          	add	t3,t3,t2
800c112c:	000f8513          	mv	a0,t6
800c1130:	00000893          	li	a7,0
800c1134:	00052603          	lw	a2,0(a0)
800c1138:	00030693          	mv	a3,t1
800c113c:	000e0793          	mv	a5,t3
800c1140:	0007a703          	lw	a4,0(a5)
800c1144:	0006a583          	lw	a1,0(a3)
800c1148:	00478793          	addi	a5,a5,4
800c114c:	40068693          	addi	a3,a3,1024
800c1150:	02b70733          	mul	a4,a4,a1
800c1154:	00e60633          	add	a2,a2,a4
800c1158:	00c52023          	sw	a2,0(a0)
800c115c:	fef812e3          	bne	a6,a5,800c1140 <matrix_multiply+0x60>
800c1160:	00188893          	addi	a7,a7,1
800c1164:	00450513          	addi	a0,a0,4
800c1168:	00430313          	addi	t1,t1,4
800c116c:	fdd894e3          	bne	a7,t4,800c1134 <matrix_multiply+0x54>
800c1170:	100f0f13          	addi	t5,t5,256
800c1174:	40080813          	addi	a6,a6,1024
800c1178:	400f8f93          	addi	t6,t6,1024
800c117c:	fa5f12e3          	bne	t5,t0,800c1120 <matrix_multiply+0x40>
800c1180:	00c12483          	lw	s1,12(sp)
800c1184:	01010113          	addi	sp,sp,16
800c1188:	00008067          	ret

800c118c <main>:
800c118c:	fd010113          	addi	sp,sp,-48
800c1190:	02112623          	sw	ra,44(sp)
800c1194:	02912423          	sw	s1,40(sp)
800c1198:	03212223          	sw	s2,36(sp)
800c119c:	03312023          	sw	s3,32(sp)
800c11a0:	01412e23          	sw	s4,28(sp)
800c11a4:	01512c23          	sw	s5,24(sp)
800c11a8:	01612a23          	sw	s6,20(sp)
800c11ac:	01712823          	sw	s7,16(sp)
800c11b0:	01812623          	sw	s8,12(sp)
800c11b4:	01912423          	sw	s9,8(sp)
800c11b8:	f14024f3          	csrr	s1,mhartid
800c11bc:	1e049a63          	bnez	s1,800c13b0 <main+0x224>
800c11c0:	00040537          	lui	a0,0x40
800c11c4:	579000ef          	jal	ra,800c1f3c <malloc>
800c11c8:	00050793          	mv	a5,a0
800c11cc:	801519b7          	lui	s3,0x80151
800c11d0:	00040537          	lui	a0,0x40
800c11d4:	04f9a623          	sw	a5,76(s3) # 8015104c <__stack_top+0xff44f84c>
800c11d8:	565000ef          	jal	ra,800c1f3c <malloc>
800c11dc:	00050793          	mv	a5,a0
800c11e0:	80151937          	lui	s2,0x80151
800c11e4:	00040537          	lui	a0,0x40
800c11e8:	04f92423          	sw	a5,72(s2) # 80151048 <__stack_top+0xff44f848>
800c11ec:	551000ef          	jal	ra,800c1f3c <malloc>
800c11f0:	00050793          	mv	a5,a0
800c11f4:	80151bb7          	lui	s7,0x80151
800c11f8:	00040537          	lui	a0,0x40
800c11fc:	04fba223          	sw	a5,68(s7) # 80151044 <__stack_top+0xff44f844>
800c1200:	53d000ef          	jal	ra,800c1f3c <malloc>
800c1204:	04c9a683          	lw	a3,76(s3)
800c1208:	04892703          	lw	a4,72(s2)
800c120c:	80151c37          	lui	s8,0x80151
800c1210:	04ac2023          	sw	a0,64(s8) # 80151040 <__stack_top+0xff44f840>
800c1214:	00000793          	li	a5,0
800c1218:	00010637          	lui	a2,0x10
800c121c:	00f6a023          	sw	a5,0(a3)
800c1220:	00f72023          	sw	a5,0(a4)
800c1224:	00052023          	sw	zero,0(a0) # 40000 <__stack_size+0x3f800>
800c1228:	00178793          	addi	a5,a5,1
800c122c:	00468693          	addi	a3,a3,4
800c1230:	00470713          	addi	a4,a4,4
800c1234:	00450513          	addi	a0,a0,4
800c1238:	fec792e3          	bne	a5,a2,800c121c <main+0x90>
800c123c:	80151937          	lui	s2,0x80151
800c1240:	00892683          	lw	a3,8(s2) # 80151008 <__stack_top+0xff44f808>
800c1244:	80151ab7          	lui	s5,0x80151
800c1248:	004aa703          	lw	a4,4(s5) # 80151004 <__stack_top+0xff44f804>
800c124c:	80151b37          	lui	s6,0x80151
800c1250:	00cb2783          	lw	a5,12(s6) # 8015100c <__stack_top+0xff44f80c>
800c1254:	0006a023          	sw	zero,0(a3)
800c1258:	00072023          	sw	zero,0(a4)
800c125c:	0007a023          	sw	zero,0(a5)
800c1260:	de5ff0ef          	jal	ra,800c1044 <generate_answer>
800c1264:	80151a37          	lui	s4,0x80151
800c1268:	010a2503          	lw	a0,16(s4) # 80151010 <__stack_top+0xff44f810>
800c126c:	00100593          	li	a1,1
800c1270:	801519b7          	lui	s3,0x80151
800c1274:	d8dff0ef          	jal	ra,800c1000 <atomic_or>
800c1278:	010a2683          	lw	a3,16(s4)
800c127c:	0009a703          	lw	a4,0(s3) # 80151000 <__stack_top+0xff44f800>
800c1280:	0006a783          	lw	a5,0(a3)
800c1284:	fee79ee3          	bne	a5,a4,800c1280 <main+0xf4>
800c1288:	400010ef          	jal	ra,800c2688 <clock>
800c128c:	044ba783          	lw	a5,68(s7)
800c1290:	00040737          	lui	a4,0x40
800c1294:	00050a13          	mv	s4,a0
800c1298:	00e78733          	add	a4,a5,a4
800c129c:	0007a023          	sw	zero,0(a5)
800c12a0:	00478793          	addi	a5,a5,4
800c12a4:	fee79ce3          	bne	a5,a4,800c129c <main+0x110>
800c12a8:	00cb2503          	lw	a0,12(s6)
800c12ac:	00100593          	li	a1,1
800c12b0:	d51ff0ef          	jal	ra,800c1000 <atomic_or>
800c12b4:	00cb2683          	lw	a3,12(s6)
800c12b8:	0009a703          	lw	a4,0(s3)
800c12bc:	0006a783          	lw	a5,0(a3)
800c12c0:	fee79ee3          	bne	a5,a4,800c12bc <main+0x130>
800c12c4:	00000513          	li	a0,0
800c12c8:	e19ff0ef          	jal	ra,800c10e0 <matrix_multiply>
800c12cc:	00892503          	lw	a0,8(s2)
800c12d0:	00100593          	li	a1,1
800c12d4:	d2dff0ef          	jal	ra,800c1000 <atomic_or>
800c12d8:	00892683          	lw	a3,8(s2)
800c12dc:	0009a703          	lw	a4,0(s3)
800c12e0:	0006a783          	lw	a5,0(a3)
800c12e4:	fee79ee3          	bne	a5,a4,800c12e0 <main+0x154>
800c12e8:	800d1b37          	lui	s6,0x800d1
800c12ec:	000b0513          	mv	a0,s6
800c12f0:	00000593          	li	a1,0
800c12f4:	000b0b13          	mv	s6,s6
800c12f8:	1b5000ef          	jal	ra,800c1cac <printf>
800c12fc:	018b0913          	addi	s2,s6,24 # 800d1018 <__stack_top+0xff3cf818>
800c1300:	00010cb7          	lui	s9,0x10
800c1304:	044ba703          	lw	a4,68(s7)
800c1308:	040c2783          	lw	a5,64(s8)
800c130c:	00249693          	slli	a3,s1,0x2
800c1310:	00d70733          	add	a4,a4,a3
800c1314:	00d787b3          	add	a5,a5,a3
800c1318:	00072703          	lw	a4,0(a4) # 40000 <__stack_size+0x3f800>
800c131c:	0007a783          	lw	a5,0(a5)
800c1320:	00048593          	mv	a1,s1
800c1324:	00090513          	mv	a0,s2
800c1328:	00148493          	addi	s1,s1,1
800c132c:	00f70863          	beq	a4,a5,800c133c <main+0x1b0>
800c1330:	17d000ef          	jal	ra,800c1cac <printf>
800c1334:	00100513          	li	a0,1
800c1338:	3b9000ef          	jal	ra,800c1ef0 <exit>
800c133c:	fd9494e3          	bne	s1,s9,800c1304 <main+0x178>
800c1340:	004aa503          	lw	a0,4(s5)
800c1344:	00100593          	li	a1,1
800c1348:	cb9ff0ef          	jal	ra,800c1000 <atomic_or>
800c134c:	004aa683          	lw	a3,4(s5)
800c1350:	0009a703          	lw	a4,0(s3)
800c1354:	0006a783          	lw	a5,0(a3)
800c1358:	fee79ee3          	bne	a5,a4,800c1354 <main+0x1c8>
800c135c:	32c010ef          	jal	ra,800c2688 <clock>
800c1360:	41450533          	sub	a0,a0,s4
800c1364:	3e800593          	li	a1,1000
800c1368:	02b555b3          	divu	a1,a0,a1
800c136c:	034b0513          	addi	a0,s6,52
800c1370:	13d000ef          	jal	ra,800c1cac <printf>
800c1374:	00000513          	li	a0,0
800c1378:	379000ef          	jal	ra,800c1ef0 <exit>
800c137c:	02c12083          	lw	ra,44(sp)
800c1380:	02812483          	lw	s1,40(sp)
800c1384:	02412903          	lw	s2,36(sp)
800c1388:	02012983          	lw	s3,32(sp)
800c138c:	01c12a03          	lw	s4,28(sp)
800c1390:	01812a83          	lw	s5,24(sp)
800c1394:	01412b03          	lw	s6,20(sp)
800c1398:	01012b83          	lw	s7,16(sp)
800c139c:	00c12c03          	lw	s8,12(sp)
800c13a0:	00812c83          	lw	s9,8(sp)
800c13a4:	00000513          	li	a0,0
800c13a8:	03010113          	addi	sp,sp,48
800c13ac:	00008067          	ret
800c13b0:	80151a37          	lui	s4,0x80151
800c13b4:	010a2503          	lw	a0,16(s4) # 80151010 <__stack_top+0xff44f810>
800c13b8:	00100913          	li	s2,1
800c13bc:	00991933          	sll	s2,s2,s1
800c13c0:	00090593          	mv	a1,s2
800c13c4:	c3dff0ef          	jal	ra,800c1000 <atomic_or>
800c13c8:	801519b7          	lui	s3,0x80151
800c13cc:	010a2683          	lw	a3,16(s4)
800c13d0:	0009a703          	lw	a4,0(s3) # 80151000 <__stack_top+0xff44f800>
800c13d4:	0006a783          	lw	a5,0(a3)
800c13d8:	fee79ee3          	bne	a5,a4,800c13d4 <main+0x248>
800c13dc:	80151a37          	lui	s4,0x80151
800c13e0:	00ca2503          	lw	a0,12(s4) # 8015100c <__stack_top+0xff44f80c>
800c13e4:	00090593          	mv	a1,s2
800c13e8:	c19ff0ef          	jal	ra,800c1000 <atomic_or>
800c13ec:	00ca2683          	lw	a3,12(s4)
800c13f0:	0009a703          	lw	a4,0(s3)
800c13f4:	0006a783          	lw	a5,0(a3)
800c13f8:	fee79ee3          	bne	a5,a4,800c13f4 <main+0x268>
800c13fc:	00048513          	mv	a0,s1
800c1400:	ce1ff0ef          	jal	ra,800c10e0 <matrix_multiply>
800c1404:	801514b7          	lui	s1,0x80151
800c1408:	0084a503          	lw	a0,8(s1) # 80151008 <__stack_top+0xff44f808>
800c140c:	00090593          	mv	a1,s2
800c1410:	bf1ff0ef          	jal	ra,800c1000 <atomic_or>
800c1414:	0084a683          	lw	a3,8(s1)
800c1418:	0009a703          	lw	a4,0(s3)
800c141c:	0006a783          	lw	a5,0(a3)
800c1420:	fee79ee3          	bne	a5,a4,800c141c <main+0x290>
800c1424:	801514b7          	lui	s1,0x80151
800c1428:	0044a503          	lw	a0,4(s1) # 80151004 <__stack_top+0xff44f804>
800c142c:	00090593          	mv	a1,s2
800c1430:	bd1ff0ef          	jal	ra,800c1000 <atomic_or>
800c1434:	0044a683          	lw	a3,4(s1)
800c1438:	0009a703          	lw	a4,0(s3)
800c143c:	0006a783          	lw	a5,0(a3)
800c1440:	fee79ee3          	bne	a5,a4,800c143c <main+0x2b0>
800c1444:	0000006f          	j	800c1444 <main+0x2b8>

800c1448 <crt0>:
800c1448:	80d027b7          	lui	a5,0x80d02
800c144c:	80151737          	lui	a4,0x80151
800c1450:	80078793          	addi	a5,a5,-2048 # 80d01800 <__stack_top+0x0>
800c1454:	04f72a23          	sw	a5,84(a4) # 80151054 <__stack_top+0xff44f854>
800c1458:	801512b7          	lui	t0,0x80151
800c145c:	0542a103          	lw	sp,84(t0) # 80151054 <__stack_top+0xff44f854>
800c1460:	d2dff06f          	j	800c118c <main>

800c1464 <getchar>:
800c1464:	ff010113          	addi	sp,sp,-16
800c1468:	00112623          	sw	ra,12(sp)
800c146c:	2d0010ef          	jal	ra,800c273c <inbyte>
800c1470:	00c12083          	lw	ra,12(sp)
800c1474:	01010113          	addi	sp,sp,16
800c1478:	00008067          	ret

800c147c <putchar>:
800c147c:	ff010113          	addi	sp,sp,-16
800c1480:	00812423          	sw	s0,8(sp)
800c1484:	00050413          	mv	s0,a0
800c1488:	0ff57513          	zext.b	a0,a0
800c148c:	00112623          	sw	ra,12(sp)
800c1490:	2c8010ef          	jal	ra,800c2758 <outbyte>
800c1494:	00c12083          	lw	ra,12(sp)
800c1498:	00040513          	mv	a0,s0
800c149c:	00812403          	lw	s0,8(sp)
800c14a0:	01010113          	addi	sp,sp,16
800c14a4:	00008067          	ret

800c14a8 <fputs>:
800c14a8:	801517b7          	lui	a5,0x80151
800c14ac:	01c7a783          	lw	a5,28(a5) # 8015101c <__stack_top+0xff44f81c>
800c14b0:	ff010113          	addi	sp,sp,-16
800c14b4:	00112623          	sw	ra,12(sp)
800c14b8:	00812423          	sw	s0,8(sp)
800c14bc:	04b78263          	beq	a5,a1,800c1500 <fputs+0x58>
800c14c0:	800d1437          	lui	s0,0x800d1
800c14c4:	00a00513          	li	a0,10
800c14c8:	05840413          	addi	s0,s0,88 # 800d1058 <__stack_top+0xff3cf858>
800c14cc:	00140413          	addi	s0,s0,1
800c14d0:	288010ef          	jal	ra,800c2758 <outbyte>
800c14d4:	00044503          	lbu	a0,0(s0)
800c14d8:	fe051ae3          	bnez	a0,800c14cc <fputs+0x24>
800c14dc:	00a00513          	li	a0,10
800c14e0:	278010ef          	jal	ra,800c2758 <outbyte>
800c14e4:	00a00513          	li	a0,10
800c14e8:	270010ef          	jal	ra,800c2758 <outbyte>
800c14ec:	00c12083          	lw	ra,12(sp)
800c14f0:	00812403          	lw	s0,8(sp)
800c14f4:	00a00513          	li	a0,10
800c14f8:	01010113          	addi	sp,sp,16
800c14fc:	00008067          	ret
800c1500:	00050413          	mv	s0,a0
800c1504:	00054503          	lbu	a0,0(a0)
800c1508:	fc050ee3          	beqz	a0,800c14e4 <fputs+0x3c>
800c150c:	00140413          	addi	s0,s0,1
800c1510:	248010ef          	jal	ra,800c2758 <outbyte>
800c1514:	00044503          	lbu	a0,0(s0)
800c1518:	fe051ae3          	bnez	a0,800c150c <fputs+0x64>
800c151c:	00a00513          	li	a0,10
800c1520:	238010ef          	jal	ra,800c2758 <outbyte>
800c1524:	00c12083          	lw	ra,12(sp)
800c1528:	00812403          	lw	s0,8(sp)
800c152c:	00a00513          	li	a0,10
800c1530:	01010113          	addi	sp,sp,16
800c1534:	00008067          	ret

800c1538 <fgets>:
800c1538:	801517b7          	lui	a5,0x80151
800c153c:	0207a783          	lw	a5,32(a5) # 80151020 <__stack_top+0xff44f820>
800c1540:	fe010113          	addi	sp,sp,-32
800c1544:	00112e23          	sw	ra,28(sp)
800c1548:	00812c23          	sw	s0,24(sp)
800c154c:	00912a23          	sw	s1,20(sp)
800c1550:	01212823          	sw	s2,16(sp)
800c1554:	01312623          	sw	s3,12(sp)
800c1558:	01412423          	sw	s4,8(sp)
800c155c:	06c79663          	bne	a5,a2,800c15c8 <fgets+0x90>
800c1560:	00050493          	mv	s1,a0
800c1564:	00050413          	mv	s0,a0
800c1568:	00a00913          	li	s2,10
800c156c:	00d00993          	li	s3,13
800c1570:	00b50a33          	add	s4,a0,a1
800c1574:	00059c63          	bnez	a1,800c158c <fgets+0x54>
800c1578:	0200006f          	j	800c1598 <fgets+0x60>
800c157c:	01350e63          	beq	a0,s3,800c1598 <fgets+0x60>
800c1580:	00140413          	addi	s0,s0,1
800c1584:	1d4010ef          	jal	ra,800c2758 <outbyte>
800c1588:	01440863          	beq	s0,s4,800c1598 <fgets+0x60>
800c158c:	1b0010ef          	jal	ra,800c273c <inbyte>
800c1590:	00a40023          	sb	a0,0(s0)
800c1594:	ff2514e3          	bne	a0,s2,800c157c <fgets+0x44>
800c1598:	00a00513          	li	a0,10
800c159c:	1bc010ef          	jal	ra,800c2758 <outbyte>
800c15a0:	00040023          	sb	zero,0(s0)
800c15a4:	01c12083          	lw	ra,28(sp)
800c15a8:	01812403          	lw	s0,24(sp)
800c15ac:	01012903          	lw	s2,16(sp)
800c15b0:	00c12983          	lw	s3,12(sp)
800c15b4:	00812a03          	lw	s4,8(sp)
800c15b8:	00048513          	mv	a0,s1
800c15bc:	01412483          	lw	s1,20(sp)
800c15c0:	02010113          	addi	sp,sp,32
800c15c4:	00008067          	ret
800c15c8:	800d1437          	lui	s0,0x800d1
800c15cc:	00a00513          	li	a0,10
800c15d0:	08440413          	addi	s0,s0,132 # 800d1084 <__stack_top+0xff3cf884>
800c15d4:	00140413          	addi	s0,s0,1
800c15d8:	180010ef          	jal	ra,800c2758 <outbyte>
800c15dc:	00044503          	lbu	a0,0(s0)
800c15e0:	fe051ae3          	bnez	a0,800c15d4 <fgets+0x9c>
800c15e4:	00a00513          	li	a0,10
800c15e8:	170010ef          	jal	ra,800c2758 <outbyte>
800c15ec:	01c12083          	lw	ra,28(sp)
800c15f0:	01812403          	lw	s0,24(sp)
800c15f4:	01412483          	lw	s1,20(sp)
800c15f8:	01012903          	lw	s2,16(sp)
800c15fc:	00c12983          	lw	s3,12(sp)
800c1600:	00812a03          	lw	s4,8(sp)
800c1604:	00000513          	li	a0,0
800c1608:	02010113          	addi	sp,sp,32
800c160c:	00008067          	ret

800c1610 <putd>:
800c1610:	fd010113          	addi	sp,sp,-48
800c1614:	00d037b3          	snez	a5,a3
800c1618:	3b9ad737          	lui	a4,0x3b9ad
800c161c:	02912223          	sw	s1,36(sp)
800c1620:	03212023          	sw	s2,32(sp)
800c1624:	01312e23          	sw	s3,28(sp)
800c1628:	02112623          	sw	ra,44(sp)
800c162c:	02812423          	sw	s0,40(sp)
800c1630:	01412c23          	sw	s4,24(sp)
800c1634:	00068493          	mv	s1,a3
800c1638:	40f585b3          	sub	a1,a1,a5
800c163c:	00a00813          	li	a6,10
800c1640:	00000993          	li	s3,0
800c1644:	00100913          	li	s2,1
800c1648:	a0070713          	addi	a4,a4,-1536 # 3b9aca00 <__heap_size+0x3b1aca00>
800c164c:	00a00893          	li	a7,10
800c1650:	0300006f          	j	800c1680 <putd+0x70>
800c1654:	02f576b3          	remu	a3,a0,a5
800c1658:	00000913          	li	s2,0
800c165c:	02f557b3          	divu	a5,a0,a5
800c1660:	00068513          	mv	a0,a3
800c1664:	01098693          	addi	a3,s3,16
800c1668:	002686b3          	add	a3,a3,sp
800c166c:	00198993          	addi	s3,s3,1
800c1670:	03078793          	addi	a5,a5,48
800c1674:	fef68823          	sb	a5,-16(a3)
800c1678:	fff80813          	addi	a6,a6,-1
800c167c:	00080e63          	beqz	a6,800c1698 <putd+0x88>
800c1680:	00070793          	mv	a5,a4
800c1684:	03175733          	divu	a4,a4,a7
800c1688:	fcf576e3          	bgeu	a0,a5,800c1654 <putd+0x44>
800c168c:	fe0916e3          	bnez	s2,800c1678 <putd+0x68>
800c1690:	00050693          	mv	a3,a0
800c1694:	fc5ff06f          	j	800c1658 <putd+0x48>
800c1698:	0a091663          	bnez	s2,800c1744 <putd+0x134>
800c169c:	00014783          	lbu	a5,0(sp)
800c16a0:	00098913          	mv	s2,s3
800c16a4:	00f10023          	sb	a5,0(sp)
800c16a8:	01098793          	addi	a5,s3,16
800c16ac:	002787b3          	add	a5,a5,sp
800c16b0:	fe078823          	sb	zero,-16(a5)
800c16b4:	fff58413          	addi	s0,a1,-1
800c16b8:	04061e63          	bnez	a2,800c1714 <putd+0x104>
800c16bc:	fff98a13          	addi	s4,s3,-1
800c16c0:	01344a63          	blt	s0,s3,800c16d4 <putd+0xc4>
800c16c4:	fff40413          	addi	s0,s0,-1
800c16c8:	02000513          	li	a0,32
800c16cc:	08c010ef          	jal	ra,800c2758 <outbyte>
800c16d0:	fe8a1ae3          	bne	s4,s0,800c16c4 <putd+0xb4>
800c16d4:	08049863          	bnez	s1,800c1764 <putd+0x154>
800c16d8:	00010413          	mv	s0,sp
800c16dc:	008904b3          	add	s1,s2,s0
800c16e0:	00090a63          	beqz	s2,800c16f4 <putd+0xe4>
800c16e4:	00044503          	lbu	a0,0(s0)
800c16e8:	00140413          	addi	s0,s0,1
800c16ec:	06c010ef          	jal	ra,800c2758 <outbyte>
800c16f0:	fe941ae3          	bne	s0,s1,800c16e4 <putd+0xd4>
800c16f4:	02c12083          	lw	ra,44(sp)
800c16f8:	02812403          	lw	s0,40(sp)
800c16fc:	02412483          	lw	s1,36(sp)
800c1700:	02012903          	lw	s2,32(sp)
800c1704:	01c12983          	lw	s3,28(sp)
800c1708:	01812a03          	lw	s4,24(sp)
800c170c:	03010113          	addi	sp,sp,48
800c1710:	00008067          	ret
800c1714:	02049e63          	bnez	s1,800c1750 <putd+0x140>
800c1718:	fff98493          	addi	s1,s3,-1
800c171c:	fb344ee3          	blt	s0,s3,800c16d8 <putd+0xc8>
800c1720:	fff40413          	addi	s0,s0,-1
800c1724:	03000513          	li	a0,48
800c1728:	030010ef          	jal	ra,800c2758 <outbyte>
800c172c:	fa9406e3          	beq	s0,s1,800c16d8 <putd+0xc8>
800c1730:	fff40413          	addi	s0,s0,-1
800c1734:	03000513          	li	a0,48
800c1738:	020010ef          	jal	ra,800c2758 <outbyte>
800c173c:	fe9412e3          	bne	s0,s1,800c1720 <putd+0x110>
800c1740:	f99ff06f          	j	800c16d8 <putd+0xc8>
800c1744:	03000793          	li	a5,48
800c1748:	00100993          	li	s3,1
800c174c:	f59ff06f          	j	800c16a4 <putd+0x94>
800c1750:	02d00513          	li	a0,45
800c1754:	004010ef          	jal	ra,800c2758 <outbyte>
800c1758:	fff98493          	addi	s1,s3,-1
800c175c:	fd3452e3          	bge	s0,s3,800c1720 <putd+0x110>
800c1760:	f79ff06f          	j	800c16d8 <putd+0xc8>
800c1764:	02d00513          	li	a0,45
800c1768:	7f1000ef          	jal	ra,800c2758 <outbyte>
800c176c:	f6dff06f          	j	800c16d8 <putd+0xc8>

800c1770 <putx>:
800c1770:	01f6d793          	srli	a5,a3,0x1f
800c1774:	00f68833          	add	a6,a3,a5
800c1778:	00187813          	andi	a6,a6,1
800c177c:	40f80833          	sub	a6,a6,a5
800c1780:	800d17b7          	lui	a5,0x800d1
800c1784:	fc010113          	addi	sp,sp,-64
800c1788:	0b078793          	addi	a5,a5,176 # 800d10b0 <__stack_top+0xff3cf8b0>
800c178c:	00281813          	slli	a6,a6,0x2
800c1790:	00f12623          	sw	a5,12(sp)
800c1794:	800d17b7          	lui	a5,0x800d1
800c1798:	0c478793          	addi	a5,a5,196 # 800d10c4 <__stack_top+0xff3cf8c4>
800c179c:	02080713          	addi	a4,a6,32
800c17a0:	02812c23          	sw	s0,56(sp)
800c17a4:	03212823          	sw	s2,48(sp)
800c17a8:	00f12823          	sw	a5,16(sp)
800c17ac:	02112e23          	sw	ra,60(sp)
800c17b0:	02912a23          	sw	s1,52(sp)
800c17b4:	03312623          	sw	s3,44(sp)
800c17b8:	00060913          	mv	s2,a2
800c17bc:	01c00793          	li	a5,28
800c17c0:	00000413          	li	s0,0
800c17c4:	00100e13          	li	t3,1
800c17c8:	00270833          	add	a6,a4,sp
800c17cc:	02000313          	li	t1,32
800c17d0:	ffc00893          	li	a7,-4
800c17d4:	0300006f          	j	800c1804 <putx+0x94>
800c17d8:	00e65533          	srl	a0,a2,a4
800c17dc:	00000e13          	li	t3,0
800c17e0:	fec82703          	lw	a4,-20(a6)
800c17e4:	ffc78793          	addi	a5,a5,-4
800c17e8:	00d70733          	add	a4,a4,a3
800c17ec:	00074683          	lbu	a3,0(a4)
800c17f0:	02040713          	addi	a4,s0,32
800c17f4:	00270733          	add	a4,a4,sp
800c17f8:	fed70a23          	sb	a3,-12(a4)
800c17fc:	00140413          	addi	s0,s0,1
800c1800:	03178263          	beq	a5,a7,800c1824 <putx+0xb4>
800c1804:	40f30733          	sub	a4,t1,a5
800c1808:	00f556b3          	srl	a3,a0,a5
800c180c:	00e51633          	sll	a2,a0,a4
800c1810:	fc0694e3          	bnez	a3,800c17d8 <putx+0x68>
800c1814:	fc0e06e3          	beqz	t3,800c17e0 <putx+0x70>
800c1818:	fc0914e3          	bnez	s2,800c17e0 <putx+0x70>
800c181c:	ffc78793          	addi	a5,a5,-4
800c1820:	ff1792e3          	bne	a5,a7,800c1804 <putx+0x94>
800c1824:	02040793          	addi	a5,s0,32
800c1828:	002787b3          	add	a5,a5,sp
800c182c:	fe078a23          	sb	zero,-12(a5)
800c1830:	fff58493          	addi	s1,a1,-1
800c1834:	0284c063          	blt	s1,s0,800c1854 <putx+0xe4>
800c1838:	fff40993          	addi	s3,s0,-1
800c183c:	03000513          	li	a0,48
800c1840:	00091463          	bnez	s2,800c1848 <putx+0xd8>
800c1844:	02000513          	li	a0,32
800c1848:	fff48493          	addi	s1,s1,-1
800c184c:	70d000ef          	jal	ra,800c2758 <outbyte>
800c1850:	fe9996e3          	bne	s3,s1,800c183c <putx+0xcc>
800c1854:	00040e63          	beqz	s0,800c1870 <putx+0x100>
800c1858:	01410493          	addi	s1,sp,20
800c185c:	00940433          	add	s0,s0,s1
800c1860:	0004c503          	lbu	a0,0(s1)
800c1864:	00148493          	addi	s1,s1,1
800c1868:	6f1000ef          	jal	ra,800c2758 <outbyte>
800c186c:	fe849ae3          	bne	s1,s0,800c1860 <putx+0xf0>
800c1870:	03c12083          	lw	ra,60(sp)
800c1874:	03812403          	lw	s0,56(sp)
800c1878:	03412483          	lw	s1,52(sp)
800c187c:	03012903          	lw	s2,48(sp)
800c1880:	02c12983          	lw	s3,44(sp)
800c1884:	04010113          	addi	sp,sp,64
800c1888:	00008067          	ret

800c188c <putld>:
800c188c:	f9010113          	addi	sp,sp,-112
800c1890:	06812423          	sw	s0,104(sp)
800c1894:	07212023          	sw	s2,96(sp)
800c1898:	05612823          	sw	s6,80(sp)
800c189c:	03b12e23          	sw	s11,60(sp)
800c18a0:	06112623          	sw	ra,108(sp)
800c18a4:	06912223          	sw	s1,100(sp)
800c18a8:	05312e23          	sw	s3,92(sp)
800c18ac:	05412c23          	sw	s4,88(sp)
800c18b0:	05512a23          	sw	s5,84(sp)
800c18b4:	05712623          	sw	s7,76(sp)
800c18b8:	05812423          	sw	s8,72(sp)
800c18bc:	05912223          	sw	s9,68(sp)
800c18c0:	05a12023          	sw	s10,64(sp)
800c18c4:	00d12623          	sw	a3,12(sp)
800c18c8:	00050d93          	mv	s11,a0
800c18cc:	00058413          	mv	s0,a1
800c18d0:	00060913          	mv	s2,a2
800c18d4:	00000b13          	li	s6,0
800c18d8:	00071663          	bnez	a4,800c18e4 <putld+0x58>
800c18dc:	00070b13          	mv	s6,a4
800c18e0:	1c05ca63          	bltz	a1,800c1ab4 <putld+0x228>
800c18e4:	ccccd9b7          	lui	s3,0xccccd
800c18e8:	800d17b7          	lui	a5,0x800d1
800c18ec:	ccd98c93          	addi	s9,s3,-819 # cccccccd <__stack_top+0x4bfcb4cd>
800c18f0:	3447ac03          	lw	s8,836(a5) # 800d1344 <__stack_top+0xff3cfb44>
800c18f4:	01200d13          	li	s10,18
800c18f8:	00000493          	li	s1,0
800c18fc:	00100a13          	li	s4,1
800c1900:	5d8a0bb7          	lui	s7,0x5d8a0
800c1904:	00500a93          	li	s5,5
800c1908:	ccc98993          	addi	s3,s3,-820
800c190c:	04c0006f          	j	800c1958 <putld+0xcc>
800c1910:	02a687b3          	mul	a5,a3,a0
800c1914:	02a70733          	mul	a4,a4,a0
800c1918:	40fd87b3          	sub	a5,s11,a5
800c191c:	00fdb5b3          	sltu	a1,s11,a5
800c1920:	00078d93          	mv	s11,a5
800c1924:	02d536b3          	mulhu	a3,a0,a3
800c1928:	00d70733          	add	a4,a4,a3
800c192c:	40e40733          	sub	a4,s0,a4
800c1930:	40b70433          	sub	s0,a4,a1
800c1934:	02048793          	addi	a5,s1,32
800c1938:	01010713          	addi	a4,sp,16
800c193c:	00e787b3          	add	a5,a5,a4
800c1940:	03050513          	addi	a0,a0,48
800c1944:	fea78423          	sb	a0,-24(a5)
800c1948:	fffd0d13          	addi	s10,s10,-1
800c194c:	00148493          	addi	s1,s1,1
800c1950:	00000a13          	li	s4,0
800c1954:	060d0a63          	beqz	s10,800c19c8 <putld+0x13c>
800c1958:	000b8613          	mv	a2,s7
800c195c:	000c0693          	mv	a3,s8
800c1960:	000d8513          	mv	a0,s11
800c1964:	00040593          	mv	a1,s0
800c1968:	62d000ef          	jal	ra,800c2794 <__udivdi3>
800c196c:	018b87b3          	add	a5,s7,s8
800c1970:	0177b733          	sltu	a4,a5,s7
800c1974:	00e787b3          	add	a5,a5,a4
800c1978:	0357f7b3          	remu	a5,a5,s5
800c197c:	000c0713          	mv	a4,s8
800c1980:	000b8693          	mv	a3,s7
800c1984:	40fb87b3          	sub	a5,s7,a5
800c1988:	00fbbc33          	sltu	s8,s7,a5
800c198c:	41870c33          	sub	s8,a4,s8
800c1990:	033785b3          	mul	a1,a5,s3
800c1994:	039c0c33          	mul	s8,s8,s9
800c1998:	0397b633          	mulhu	a2,a5,s9
800c199c:	00bc0c33          	add	s8,s8,a1
800c19a0:	039787b3          	mul	a5,a5,s9
800c19a4:	00cc0c33          	add	s8,s8,a2
800c19a8:	01fc1613          	slli	a2,s8,0x1f
800c19ac:	001c5c13          	srli	s8,s8,0x1
800c19b0:	0017d793          	srli	a5,a5,0x1
800c19b4:	00f66bb3          	or	s7,a2,a5
800c19b8:	f4051ce3          	bnez	a0,800c1910 <putld+0x84>
800c19bc:	f60a0ce3          	beqz	s4,800c1934 <putld+0xa8>
800c19c0:	fffd0d13          	addi	s10,s10,-1
800c19c4:	f80d1ae3          	bnez	s10,800c1958 <putld+0xcc>
800c19c8:	0c0a1c63          	bnez	s4,800c1aa0 <putld+0x214>
800c19cc:	01814783          	lbu	a5,24(sp)
800c19d0:	00048993          	mv	s3,s1
800c19d4:	41f4da13          	srai	s4,s1,0x1f
800c19d8:	00f10c23          	sb	a5,24(sp)
800c19dc:	01010713          	addi	a4,sp,16
800c19e0:	02048793          	addi	a5,s1,32
800c19e4:	00e787b3          	add	a5,a5,a4
800c19e8:	fe078423          	sb	zero,-24(a5)
800c19ec:	00c12783          	lw	a5,12(sp)
800c19f0:	fff90913          	addi	s2,s2,-1
800c19f4:	06079e63          	bnez	a5,800c1a70 <putld+0x1e4>
800c19f8:	fff48413          	addi	s0,s1,-1
800c19fc:	00994a63          	blt	s2,s1,800c1a10 <putld+0x184>
800c1a00:	fff90913          	addi	s2,s2,-1
800c1a04:	02000513          	li	a0,32
800c1a08:	551000ef          	jal	ra,800c2758 <outbyte>
800c1a0c:	ff241ae3          	bne	s0,s2,800c1a00 <putld+0x174>
800c1a10:	0c0b1a63          	bnez	s6,800c1ae4 <putld+0x258>
800c1a14:	01810413          	addi	s0,sp,24
800c1a18:	0149e7b3          	or	a5,s3,s4
800c1a1c:	013409b3          	add	s3,s0,s3
800c1a20:	00078a63          	beqz	a5,800c1a34 <putld+0x1a8>
800c1a24:	00044503          	lbu	a0,0(s0)
800c1a28:	00140413          	addi	s0,s0,1
800c1a2c:	52d000ef          	jal	ra,800c2758 <outbyte>
800c1a30:	ff341ae3          	bne	s0,s3,800c1a24 <putld+0x198>
800c1a34:	06c12083          	lw	ra,108(sp)
800c1a38:	06812403          	lw	s0,104(sp)
800c1a3c:	06412483          	lw	s1,100(sp)
800c1a40:	06012903          	lw	s2,96(sp)
800c1a44:	05c12983          	lw	s3,92(sp)
800c1a48:	05812a03          	lw	s4,88(sp)
800c1a4c:	05412a83          	lw	s5,84(sp)
800c1a50:	05012b03          	lw	s6,80(sp)
800c1a54:	04c12b83          	lw	s7,76(sp)
800c1a58:	04812c03          	lw	s8,72(sp)
800c1a5c:	04412c83          	lw	s9,68(sp)
800c1a60:	04012d03          	lw	s10,64(sp)
800c1a64:	03c12d83          	lw	s11,60(sp)
800c1a68:	07010113          	addi	sp,sp,112
800c1a6c:	00008067          	ret
800c1a70:	060b1063          	bnez	s6,800c1ad0 <putld+0x244>
800c1a74:	fff48413          	addi	s0,s1,-1
800c1a78:	f8994ee3          	blt	s2,s1,800c1a14 <putld+0x188>
800c1a7c:	fff90913          	addi	s2,s2,-1
800c1a80:	03000513          	li	a0,48
800c1a84:	4d5000ef          	jal	ra,800c2758 <outbyte>
800c1a88:	f88906e3          	beq	s2,s0,800c1a14 <putld+0x188>
800c1a8c:	fff90913          	addi	s2,s2,-1
800c1a90:	03000513          	li	a0,48
800c1a94:	4c5000ef          	jal	ra,800c2758 <outbyte>
800c1a98:	fe8912e3          	bne	s2,s0,800c1a7c <putld+0x1f0>
800c1a9c:	f79ff06f          	j	800c1a14 <putld+0x188>
800c1aa0:	00100993          	li	s3,1
800c1aa4:	00000a13          	li	s4,0
800c1aa8:	03000793          	li	a5,48
800c1aac:	00100493          	li	s1,1
800c1ab0:	f29ff06f          	j	800c19d8 <putld+0x14c>
800c1ab4:	00a037b3          	snez	a5,a0
800c1ab8:	40b00433          	neg	s0,a1
800c1abc:	fff60913          	addi	s2,a2,-1 # ffff <__stack_size+0xf7ff>
800c1ac0:	40f40433          	sub	s0,s0,a5
800c1ac4:	40a00db3          	neg	s11,a0
800c1ac8:	00100b13          	li	s6,1
800c1acc:	e19ff06f          	j	800c18e4 <putld+0x58>
800c1ad0:	02d00513          	li	a0,45
800c1ad4:	485000ef          	jal	ra,800c2758 <outbyte>
800c1ad8:	fff48413          	addi	s0,s1,-1
800c1adc:	fa9950e3          	bge	s2,s1,800c1a7c <putld+0x1f0>
800c1ae0:	f35ff06f          	j	800c1a14 <putld+0x188>
800c1ae4:	02d00513          	li	a0,45
800c1ae8:	471000ef          	jal	ra,800c2758 <outbyte>
800c1aec:	f29ff06f          	j	800c1a14 <putld+0x188>

800c1af0 <putf>:
800c1af0:	fc010113          	addi	sp,sp,-64
800c1af4:	03512223          	sw	s5,36(sp)
800c1af8:	01812c23          	sw	s8,24(sp)
800c1afc:	01912a23          	sw	s9,20(sp)
800c1b00:	01a12823          	sw	s10,16(sp)
800c1b04:	01b12623          	sw	s11,12(sp)
800c1b08:	02112e23          	sw	ra,60(sp)
800c1b0c:	02812c23          	sw	s0,56(sp)
800c1b10:	02912a23          	sw	s1,52(sp)
800c1b14:	03212823          	sw	s2,48(sp)
800c1b18:	03312623          	sw	s3,44(sp)
800c1b1c:	03412423          	sw	s4,40(sp)
800c1b20:	03612023          	sw	s6,32(sp)
800c1b24:	01712e23          	sw	s7,28(sp)
800c1b28:	00070a93          	mv	s5,a4
800c1b2c:	00050d13          	mv	s10,a0
800c1b30:	00058c93          	mv	s9,a1
800c1b34:	00060c13          	mv	s8,a2
800c1b38:	00068d93          	mv	s11,a3
800c1b3c:	14e05a63          	blez	a4,800c1c90 <putf+0x1a0>
800c1b40:	800d17b7          	lui	a5,0x800d1
800c1b44:	800d1737          	lui	a4,0x800d1
800c1b48:	3507a983          	lw	s3,848(a5) # 800d1350 <__stack_top+0xff3cfb50>
800c1b4c:	3547a903          	lw	s2,852(a5)
800c1b50:	800d17b7          	lui	a5,0x800d1
800c1b54:	34872483          	lw	s1,840(a4) # 800d1348 <__stack_top+0xff3cfb48>
800c1b58:	34c72403          	lw	s0,844(a4)
800c1b5c:	3587ab03          	lw	s6,856(a5) # 800d1358 <__stack_top+0xff3cfb58>
800c1b60:	35c7ab83          	lw	s7,860(a5)
800c1b64:	00000a13          	li	s4,0
800c1b68:	00098513          	mv	a0,s3
800c1b6c:	00090593          	mv	a1,s2
800c1b70:	000b0613          	mv	a2,s6
800c1b74:	000b8693          	mv	a3,s7
800c1b78:	039010ef          	jal	ra,800c33b0 <__divdf3>
800c1b7c:	00050993          	mv	s3,a0
800c1b80:	00058913          	mv	s2,a1
800c1b84:	00048513          	mv	a0,s1
800c1b88:	00040593          	mv	a1,s0
800c1b8c:	000b0613          	mv	a2,s6
800c1b90:	000b8693          	mv	a3,s7
800c1b94:	7f5010ef          	jal	ra,800c3b88 <__muldf3>
800c1b98:	001a0a13          	addi	s4,s4,1
800c1b9c:	00050493          	mv	s1,a0
800c1ba0:	00058413          	mv	s0,a1
800c1ba4:	fd4a92e3          	bne	s5,s4,800c1b68 <putf+0x78>
800c1ba8:	000d0513          	mv	a0,s10
800c1bac:	000c8593          	mv	a1,s9
800c1bb0:	00000613          	li	a2,0
800c1bb4:	00000693          	li	a3,0
800c1bb8:	6c1010ef          	jal	ra,800c3a78 <__ledf2>
800c1bbc:	00000a13          	li	s4,0
800c1bc0:	00055863          	bgez	a0,800c1bd0 <putf+0xe0>
800c1bc4:	800007b7          	lui	a5,0x80000
800c1bc8:	0197ccb3          	xor	s9,a5,s9
800c1bcc:	00100a13          	li	s4,1
800c1bd0:	00098613          	mv	a2,s3
800c1bd4:	00090693          	mv	a3,s2
800c1bd8:	000d0513          	mv	a0,s10
800c1bdc:	000c8593          	mv	a1,s9
800c1be0:	7e5000ef          	jal	ra,800c2bc4 <__adddf3>
800c1be4:	00058913          	mv	s2,a1
800c1be8:	00050993          	mv	s3,a0
800c1bec:	415c0c33          	sub	s8,s8,s5
800c1bf0:	5e9020ef          	jal	ra,800c49d8 <__fixunsdfsi>
800c1bf4:	418005b3          	neg	a1,s8
800c1bf8:	41f5d593          	srai	a1,a1,0x1f
800c1bfc:	fffc0c13          	addi	s8,s8,-1
800c1c00:	000a0693          	mv	a3,s4
800c1c04:	000d8613          	mv	a2,s11
800c1c08:	00bc75b3          	and	a1,s8,a1
800c1c0c:	00050a13          	mv	s4,a0
800c1c10:	a01ff0ef          	jal	ra,800c1610 <putd>
800c1c14:	02e00513          	li	a0,46
800c1c18:	341000ef          	jal	ra,800c2758 <outbyte>
800c1c1c:	000a0513          	mv	a0,s4
800c1c20:	631020ef          	jal	ra,800c4a50 <__floatunsidf>
800c1c24:	00050613          	mv	a2,a0
800c1c28:	00058693          	mv	a3,a1
800c1c2c:	00098513          	mv	a0,s3
800c1c30:	00090593          	mv	a1,s2
800c1c34:	550020ef          	jal	ra,800c4184 <__subdf3>
800c1c38:	00048613          	mv	a2,s1
800c1c3c:	00040693          	mv	a3,s0
800c1c40:	749010ef          	jal	ra,800c3b88 <__muldf3>
800c1c44:	68d020ef          	jal	ra,800c4ad0 <__fixunsdfdi>
800c1c48:	03812403          	lw	s0,56(sp)
800c1c4c:	03c12083          	lw	ra,60(sp)
800c1c50:	03412483          	lw	s1,52(sp)
800c1c54:	03012903          	lw	s2,48(sp)
800c1c58:	02c12983          	lw	s3,44(sp)
800c1c5c:	02812a03          	lw	s4,40(sp)
800c1c60:	02012b03          	lw	s6,32(sp)
800c1c64:	01c12b83          	lw	s7,28(sp)
800c1c68:	01812c03          	lw	s8,24(sp)
800c1c6c:	01412c83          	lw	s9,20(sp)
800c1c70:	01012d03          	lw	s10,16(sp)
800c1c74:	00c12d83          	lw	s11,12(sp)
800c1c78:	000a8613          	mv	a2,s5
800c1c7c:	02412a83          	lw	s5,36(sp)
800c1c80:	00100713          	li	a4,1
800c1c84:	00100693          	li	a3,1
800c1c88:	04010113          	addi	sp,sp,64
800c1c8c:	c01ff06f          	j	800c188c <putld>
800c1c90:	800d1737          	lui	a4,0x800d1
800c1c94:	800d17b7          	lui	a5,0x800d1
800c1c98:	34872483          	lw	s1,840(a4) # 800d1348 <__stack_top+0xff3cfb48>
800c1c9c:	34c72403          	lw	s0,844(a4)
800c1ca0:	3507a983          	lw	s3,848(a5) # 800d1350 <__stack_top+0xff3cfb50>
800c1ca4:	3547a903          	lw	s2,852(a5)
800c1ca8:	f01ff06f          	j	800c1ba8 <putf+0xb8>

800c1cac <printf>:
800c1cac:	fa010113          	addi	sp,sp,-96
800c1cb0:	02812c23          	sw	s0,56(sp)
800c1cb4:	04f12a23          	sw	a5,84(sp)
800c1cb8:	02112e23          	sw	ra,60(sp)
800c1cbc:	02912a23          	sw	s1,52(sp)
800c1cc0:	03212823          	sw	s2,48(sp)
800c1cc4:	03312623          	sw	s3,44(sp)
800c1cc8:	03412423          	sw	s4,40(sp)
800c1ccc:	03512223          	sw	s5,36(sp)
800c1cd0:	03612023          	sw	s6,32(sp)
800c1cd4:	01712e23          	sw	s7,28(sp)
800c1cd8:	04b12223          	sw	a1,68(sp)
800c1cdc:	04c12423          	sw	a2,72(sp)
800c1ce0:	04d12623          	sw	a3,76(sp)
800c1ce4:	04e12823          	sw	a4,80(sp)
800c1ce8:	05012c23          	sw	a6,88(sp)
800c1cec:	05112e23          	sw	a7,92(sp)
800c1cf0:	00050413          	mv	s0,a0
800c1cf4:	00054503          	lbu	a0,0(a0)
800c1cf8:	04410793          	addi	a5,sp,68
800c1cfc:	00f12623          	sw	a5,12(sp)
800c1d00:	02050a63          	beqz	a0,800c1d34 <printf+0x88>
800c1d04:	800d19b7          	lui	s3,0x800d1
800c1d08:	00600493          	li	s1,6
800c1d0c:	02500913          	li	s2,37
800c1d10:	00900b13          	li	s6,9
800c1d14:	02e00a93          	li	s5,46
800c1d18:	02000a13          	li	s4,32
800c1d1c:	0d898993          	addi	s3,s3,216 # 800d10d8 <__stack_top+0xff3cf8d8>
800c1d20:	05250263          	beq	a0,s2,800c1d64 <printf+0xb8>
800c1d24:	235000ef          	jal	ra,800c2758 <outbyte>
800c1d28:	00144503          	lbu	a0,1(s0)
800c1d2c:	00140413          	addi	s0,s0,1
800c1d30:	fe0518e3          	bnez	a0,800c1d20 <printf+0x74>
800c1d34:	03c12083          	lw	ra,60(sp)
800c1d38:	03812403          	lw	s0,56(sp)
800c1d3c:	03412483          	lw	s1,52(sp)
800c1d40:	03012903          	lw	s2,48(sp)
800c1d44:	02c12983          	lw	s3,44(sp)
800c1d48:	02812a03          	lw	s4,40(sp)
800c1d4c:	02412a83          	lw	s5,36(sp)
800c1d50:	02012b03          	lw	s6,32(sp)
800c1d54:	01c12b83          	lw	s7,28(sp)
800c1d58:	00000513          	li	a0,0
800c1d5c:	06010113          	addi	sp,sp,96
800c1d60:	00008067          	ret
800c1d64:	00144703          	lbu	a4,1(s0)
800c1d68:	00000813          	li	a6,0
800c1d6c:	00140413          	addi	s0,s0,1
800c1d70:	fd070793          	addi	a5,a4,-48
800c1d74:	0ff7f693          	zext.b	a3,a5
800c1d78:	0017b613          	seqz	a2,a5
800c1d7c:	02db6463          	bltu	s6,a3,800c1da4 <printf+0xf8>
800c1d80:	00144703          	lbu	a4,1(s0)
800c1d84:	00281593          	slli	a1,a6,0x2
800c1d88:	010585b3          	add	a1,a1,a6
800c1d8c:	00159593          	slli	a1,a1,0x1
800c1d90:	00b78833          	add	a6,a5,a1
800c1d94:	fd070793          	addi	a5,a4,-48
800c1d98:	0ff7f693          	zext.b	a3,a5
800c1d9c:	00140413          	addi	s0,s0,1
800c1da0:	fedb70e3          	bgeu	s6,a3,800c1d80 <printf+0xd4>
800c1da4:	f9470713          	addi	a4,a4,-108
800c1da8:	00173713          	seqz	a4,a4
800c1dac:	00e40433          	add	s0,s0,a4
800c1db0:	00044503          	lbu	a0,0(s0)
800c1db4:	0f550a63          	beq	a0,s5,800c1ea8 <printf+0x1fc>
800c1db8:	fa850793          	addi	a5,a0,-88
800c1dbc:	0ff7f793          	zext.b	a5,a5
800c1dc0:	f6fa62e3          	bltu	s4,a5,800c1d24 <printf+0x78>
800c1dc4:	00279793          	slli	a5,a5,0x2
800c1dc8:	013787b3          	add	a5,a5,s3
800c1dcc:	0007a783          	lw	a5,0(a5)
800c1dd0:	00078067          	jr	a5
800c1dd4:	00c12783          	lw	a5,12(sp)
800c1dd8:	00000693          	li	a3,0
800c1ddc:	0007a503          	lw	a0,0(a5)
800c1de0:	00080593          	mv	a1,a6
800c1de4:	00478793          	addi	a5,a5,4
800c1de8:	00f12623          	sw	a5,12(sp)
800c1dec:	985ff0ef          	jal	ra,800c1770 <putx>
800c1df0:	f39ff06f          	j	800c1d28 <printf+0x7c>
800c1df4:	00c12783          	lw	a5,12(sp)
800c1df8:	00000693          	li	a3,0
800c1dfc:	00080593          	mv	a1,a6
800c1e00:	0007a503          	lw	a0,0(a5)
800c1e04:	00478793          	addi	a5,a5,4
800c1e08:	00f12623          	sw	a5,12(sp)
800c1e0c:	805ff0ef          	jal	ra,800c1610 <putd>
800c1e10:	f19ff06f          	j	800c1d28 <printf+0x7c>
800c1e14:	00c12783          	lw	a5,12(sp)
800c1e18:	0007ab83          	lw	s7,0(a5)
800c1e1c:	00478793          	addi	a5,a5,4
800c1e20:	00f12623          	sw	a5,12(sp)
800c1e24:	000bc503          	lbu	a0,0(s7) # 5d8a0000 <__heap_size+0x5d0a0000>
800c1e28:	f00500e3          	beqz	a0,800c1d28 <printf+0x7c>
800c1e2c:	001b8b93          	addi	s7,s7,1
800c1e30:	129000ef          	jal	ra,800c2758 <outbyte>
800c1e34:	000bc503          	lbu	a0,0(s7)
800c1e38:	fe051ae3          	bnez	a0,800c1e2c <printf+0x180>
800c1e3c:	eedff06f          	j	800c1d28 <printf+0x7c>
800c1e40:	00c12783          	lw	a5,12(sp)
800c1e44:	00060693          	mv	a3,a2
800c1e48:	00048713          	mv	a4,s1
800c1e4c:	00778793          	addi	a5,a5,7
800c1e50:	ff87f793          	andi	a5,a5,-8
800c1e54:	0007a503          	lw	a0,0(a5)
800c1e58:	0047a583          	lw	a1,4(a5)
800c1e5c:	00080613          	mv	a2,a6
800c1e60:	00878793          	addi	a5,a5,8
800c1e64:	00f12623          	sw	a5,12(sp)
800c1e68:	c89ff0ef          	jal	ra,800c1af0 <putf>
800c1e6c:	ebdff06f          	j	800c1d28 <printf+0x7c>
800c1e70:	00c12783          	lw	a5,12(sp)
800c1e74:	00080593          	mv	a1,a6
800c1e78:	0007a683          	lw	a3,0(a5)
800c1e7c:	00478793          	addi	a5,a5,4
800c1e80:	00f12623          	sw	a5,12(sp)
800c1e84:	41f6d793          	srai	a5,a3,0x1f
800c1e88:	00d7c533          	xor	a0,a5,a3
800c1e8c:	40f50533          	sub	a0,a0,a5
800c1e90:	01f6d693          	srli	a3,a3,0x1f
800c1e94:	f7cff0ef          	jal	ra,800c1610 <putd>
800c1e98:	e91ff06f          	j	800c1d28 <printf+0x7c>
800c1e9c:	00c12783          	lw	a5,12(sp)
800c1ea0:	00100693          	li	a3,1
800c1ea4:	f39ff06f          	j	800c1ddc <printf+0x130>
800c1ea8:	00144503          	lbu	a0,1(s0)
800c1eac:	00900793          	li	a5,9
800c1eb0:	00140413          	addi	s0,s0,1
800c1eb4:	fd050713          	addi	a4,a0,-48
800c1eb8:	0ff77693          	zext.b	a3,a4
800c1ebc:	00000493          	li	s1,0
800c1ec0:	eed7ece3          	bltu	a5,a3,800c1db8 <printf+0x10c>
800c1ec4:	00900693          	li	a3,9
800c1ec8:	00144503          	lbu	a0,1(s0)
800c1ecc:	00249793          	slli	a5,s1,0x2
800c1ed0:	009787b3          	add	a5,a5,s1
800c1ed4:	00179793          	slli	a5,a5,0x1
800c1ed8:	00f704b3          	add	s1,a4,a5
800c1edc:	fd050713          	addi	a4,a0,-48
800c1ee0:	0ff77793          	zext.b	a5,a4
800c1ee4:	00140413          	addi	s0,s0,1
800c1ee8:	fef6f0e3          	bgeu	a3,a5,800c1ec8 <printf+0x21c>
800c1eec:	ecdff06f          	j	800c1db8 <printf+0x10c>

800c1ef0 <exit>:
800c1ef0:	fe010113          	addi	sp,sp,-32
800c1ef4:	00112e23          	sw	ra,28(sp)
800c1ef8:	00812c23          	sw	s0,24(sp)
800c1efc:	02010413          	addi	s0,sp,32
800c1f00:	fea42623          	sw	a0,-20(s0)
800c1f04:	800d17b7          	lui	a5,0x800d1
800c1f08:	15c78513          	addi	a0,a5,348 # 800d115c <__stack_top+0xff3cf95c>
800c1f0c:	da1ff0ef          	jal	ra,800c1cac <printf>
800c1f10:	fec42583          	lw	a1,-20(s0)
800c1f14:	800d17b7          	lui	a5,0x800d1
800c1f18:	1a878513          	addi	a0,a5,424 # 800d11a8 <__stack_top+0xff3cf9a8>
800c1f1c:	d91ff0ef          	jal	ra,800c1cac <printf>
800c1f20:	800d17b7          	lui	a5,0x800d1
800c1f24:	1cc78513          	addi	a0,a5,460 # 800d11cc <__stack_top+0xff3cf9cc>
800c1f28:	d85ff0ef          	jal	ra,800c1cac <printf>
800c1f2c:	00300513          	li	a0,3
800c1f30:	d4cff0ef          	jal	ra,800c147c <putchar>
800c1f34:	00000013          	nop
800c1f38:	ffdff06f          	j	800c1f34 <exit+0x44>

800c1f3c <malloc>:
800c1f3c:	801518b7          	lui	a7,0x80151
800c1f40:	80151737          	lui	a4,0x80151
800c1f44:	03c8a783          	lw	a5,60(a7) # 8015103c <__stack_top+0xff44f83c>
800c1f48:	03872583          	lw	a1,56(a4) # 80151038 <__stack_top+0xff44f838>
800c1f4c:	00050813          	mv	a6,a0
800c1f50:	08b78c63          	beq	a5,a1,800c1fe8 <malloc+0xac>
800c1f54:	02b7f263          	bgeu	a5,a1,800c1f78 <malloc+0x3c>
800c1f58:	0007a703          	lw	a4,0(a5)
800c1f5c:	00177693          	andi	a3,a4,1
800c1f60:	40f70633          	sub	a2,a4,a5
800c1f64:	00069463          	bnez	a3,800c1f6c <malloc+0x30>
800c1f68:	04c86063          	bltu	a6,a2,800c1fa8 <malloc+0x6c>
800c1f6c:	ffe77793          	andi	a5,a4,-2
800c1f70:	feb7e4e3          	bltu	a5,a1,800c1f58 <malloc+0x1c>
800c1f74:	03c8a783          	lw	a5,60(a7)
800c1f78:	800d1737          	lui	a4,0x800d1
800c1f7c:	36472703          	lw	a4,868(a4) # 800d1364 <__stack_top+0xff3cfb64>
800c1f80:	02f77063          	bgeu	a4,a5,800c1fa0 <malloc+0x64>
800c1f84:	00072683          	lw	a3,0(a4)
800c1f88:	0016f613          	andi	a2,a3,1
800c1f8c:	40e685b3          	sub	a1,a3,a4
800c1f90:	00061463          	bnez	a2,800c1f98 <malloc+0x5c>
800c1f94:	08b86863          	bltu	a6,a1,800c2024 <malloc+0xe8>
800c1f98:	ffe6f713          	andi	a4,a3,-2
800c1f9c:	fef764e3          	bltu	a4,a5,800c1f84 <malloc+0x48>
800c1fa0:	00000513          	li	a0,0
800c1fa4:	00008067          	ret
800c1fa8:	ffe7f593          	andi	a1,a5,-2
800c1fac:	00387613          	andi	a2,a6,3
800c1fb0:	00458513          	addi	a0,a1,4
800c1fb4:	06061263          	bnez	a2,800c2018 <malloc+0xdc>
800c1fb8:	00480693          	addi	a3,a6,4
800c1fbc:	00c686b3          	add	a3,a3,a2
800c1fc0:	ffc6f693          	andi	a3,a3,-4
800c1fc4:	00d786b3          	add	a3,a5,a3
800c1fc8:	02d8ae23          	sw	a3,60(a7)
800c1fcc:	00e68463          	beq	a3,a4,800c1fd4 <malloc+0x98>
800c1fd0:	00e6a023          	sw	a4,0(a3)
800c1fd4:	0016e693          	ori	a3,a3,1
800c1fd8:	00d7a023          	sw	a3,0(a5)
800c1fdc:	ffc00793          	li	a5,-4
800c1fe0:	f8f58ae3          	beq	a1,a5,800c1f74 <malloc+0x38>
800c1fe4:	00008067          	ret
800c1fe8:	800d17b7          	lui	a5,0x800d1
800c1fec:	800d16b7          	lui	a3,0x800d1
800c1ff0:	3647a783          	lw	a5,868(a5) # 800d1364 <__stack_top+0xff3cfb64>
800c1ff4:	3606a583          	lw	a1,864(a3) # 800d1360 <__stack_top+0xff3cfb60>
800c1ff8:	02f8ae23          	sw	a5,60(a7)
800c1ffc:	00b785b3          	add	a1,a5,a1
800c2000:	ff05f593          	andi	a1,a1,-16
800c2004:	02b72c23          	sw	a1,56(a4)
800c2008:	00b7a023          	sw	a1,0(a5)
800c200c:	f4b7e6e3          	bltu	a5,a1,800c1f58 <malloc+0x1c>
800c2010:	00000513          	li	a0,0
800c2014:	f91ff06f          	j	800c1fa4 <malloc+0x68>
800c2018:	00400693          	li	a3,4
800c201c:	40c68633          	sub	a2,a3,a2
800c2020:	f99ff06f          	j	800c1fb8 <malloc+0x7c>
800c2024:	ffe77513          	andi	a0,a4,-2
800c2028:	00387613          	andi	a2,a6,3
800c202c:	00450513          	addi	a0,a0,4
800c2030:	00060663          	beqz	a2,800c203c <malloc+0x100>
800c2034:	00400793          	li	a5,4
800c2038:	40c78633          	sub	a2,a5,a2
800c203c:	00480793          	addi	a5,a6,4
800c2040:	00c787b3          	add	a5,a5,a2
800c2044:	ffc7f793          	andi	a5,a5,-4
800c2048:	00f707b3          	add	a5,a4,a5
800c204c:	02f8ae23          	sw	a5,60(a7)
800c2050:	00d78463          	beq	a5,a3,800c2058 <malloc+0x11c>
800c2054:	00d7a023          	sw	a3,0(a5)
800c2058:	0017e793          	ori	a5,a5,1
800c205c:	00f72023          	sw	a5,0(a4)
800c2060:	00008067          	ret

800c2064 <free>:
800c2064:	ffc52783          	lw	a5,-4(a0)
800c2068:	ffe7f793          	andi	a5,a5,-2
800c206c:	fef52e23          	sw	a5,-4(a0)
800c2070:	0007a783          	lw	a5,0(a5)
800c2074:	0017f713          	andi	a4,a5,1
800c2078:	00071a63          	bnez	a4,800c208c <free+0x28>
800c207c:	ffc50713          	addi	a4,a0,-4
800c2080:	fef52e23          	sw	a5,-4(a0)
800c2084:	801517b7          	lui	a5,0x80151
800c2088:	02e7ae23          	sw	a4,60(a5) # 8015103c <__stack_top+0xff44f83c>
800c208c:	00008067          	ret

800c2090 <calloc>:
800c2090:	ff010113          	addi	sp,sp,-16
800c2094:	00912423          	sw	s1,8(sp)
800c2098:	02b504b3          	mul	s1,a0,a1
800c209c:	00112623          	sw	ra,12(sp)
800c20a0:	01212223          	sw	s2,4(sp)
800c20a4:	00048513          	mv	a0,s1
800c20a8:	e95ff0ef          	jal	ra,800c1f3c <malloc>
800c20ac:	00048613          	mv	a2,s1
800c20b0:	00000593          	li	a1,0
800c20b4:	00050913          	mv	s2,a0
800c20b8:	4f0000ef          	jal	ra,800c25a8 <memset>
800c20bc:	00c12083          	lw	ra,12(sp)
800c20c0:	00812483          	lw	s1,8(sp)
800c20c4:	00090513          	mv	a0,s2
800c20c8:	00412903          	lw	s2,4(sp)
800c20cc:	01010113          	addi	sp,sp,16
800c20d0:	00008067          	ret

800c20d4 <atoi>:
800c20d4:	00050793          	mv	a5,a0
800c20d8:	02000693          	li	a3,32
800c20dc:	00900613          	li	a2,9
800c20e0:	0007c703          	lbu	a4,0(a5)
800c20e4:	00d70463          	beq	a4,a3,800c20ec <atoi+0x18>
800c20e8:	00c71663          	bne	a4,a2,800c20f4 <atoi+0x20>
800c20ec:	00178793          	addi	a5,a5,1
800c20f0:	ff1ff06f          	j	800c20e0 <atoi+0xc>
800c20f4:	02d00693          	li	a3,45
800c20f8:	00100813          	li	a6,1
800c20fc:	00d71863          	bne	a4,a3,800c210c <atoi+0x38>
800c2100:	0017c703          	lbu	a4,1(a5)
800c2104:	fff00813          	li	a6,-1
800c2108:	00178793          	addi	a5,a5,1
800c210c:	fd070713          	addi	a4,a4,-48
800c2110:	0ff77613          	zext.b	a2,a4
800c2114:	00900693          	li	a3,9
800c2118:	00000513          	li	a0,0
800c211c:	04c6e263          	bltu	a3,a2,800c2160 <atoi+0x8c>
800c2120:	0017c603          	lbu	a2,1(a5)
800c2124:	00178793          	addi	a5,a5,1
800c2128:	02060e63          	beqz	a2,800c2164 <atoi+0x90>
800c212c:	00900513          	li	a0,9
800c2130:	0100006f          	j	800c2140 <atoi+0x6c>
800c2134:	0007c603          	lbu	a2,0(a5)
800c2138:	00e58733          	add	a4,a1,a4
800c213c:	02060463          	beqz	a2,800c2164 <atoi+0x90>
800c2140:	00271693          	slli	a3,a4,0x2
800c2144:	fd060593          	addi	a1,a2,-48
800c2148:	00e68733          	add	a4,a3,a4
800c214c:	0ff5f693          	zext.b	a3,a1
800c2150:	00178793          	addi	a5,a5,1
800c2154:	00171713          	slli	a4,a4,0x1
800c2158:	fcd57ee3          	bgeu	a0,a3,800c2134 <atoi+0x60>
800c215c:	00000513          	li	a0,0
800c2160:	00008067          	ret
800c2164:	02e80533          	mul	a0,a6,a4
800c2168:	00008067          	ret

800c216c <abs>:
800c216c:	41f55793          	srai	a5,a0,0x1f
800c2170:	00a7c533          	xor	a0,a5,a0
800c2174:	40f50533          	sub	a0,a0,a5
800c2178:	00008067          	ret

800c217c <srand>:
800c217c:	801517b7          	lui	a5,0x80151
800c2180:	02a7aa23          	sw	a0,52(a5) # 80151034 <__stack_top+0xff44f834>
800c2184:	00008067          	ret

800c2188 <rand>:
800c2188:	801516b7          	lui	a3,0x80151
800c218c:	0346a783          	lw	a5,52(a3) # 80151034 <__stack_top+0xff44f834>
800c2190:	00034737          	lui	a4,0x34
800c2194:	3fd70713          	addi	a4,a4,1021 # 343fd <__stack_size+0x33bfd>
800c2198:	02e787b3          	mul	a5,a5,a4
800c219c:	0026a737          	lui	a4,0x26a
800c21a0:	ec370713          	addi	a4,a4,-317 # 269ec3 <__stack_size+0x2696c3>
800c21a4:	00e787b3          	add	a5,a5,a4
800c21a8:	00179513          	slli	a0,a5,0x1
800c21ac:	02f6aa23          	sw	a5,52(a3)
800c21b0:	01155513          	srli	a0,a0,0x11
800c21b4:	00008067          	ret

800c21b8 <strcpy>:
800c21b8:	00b567b3          	or	a5,a0,a1
800c21bc:	0037f793          	andi	a5,a5,3
800c21c0:	06079663          	bnez	a5,800c222c <strcpy+0x74>
800c21c4:	0005a683          	lw	a3,0(a1)
800c21c8:	feff0837          	lui	a6,0xfeff0
800c21cc:	eff80813          	addi	a6,a6,-257 # fefefeff <__stack_top+0x7e2ee6ff>
800c21d0:	010687b3          	add	a5,a3,a6
800c21d4:	fff6c713          	not	a4,a3
800c21d8:	808088b7          	lui	a7,0x80808
800c21dc:	00e7f7b3          	and	a5,a5,a4
800c21e0:	08088893          	addi	a7,a7,128 # 80808080 <__stack_top+0xffb06880>
800c21e4:	0117f7b3          	and	a5,a5,a7
800c21e8:	04079263          	bnez	a5,800c222c <strcpy+0x74>
800c21ec:	00050793          	mv	a5,a0
800c21f0:	00d7a023          	sw	a3,0(a5)
800c21f4:	0045a683          	lw	a3,4(a1)
800c21f8:	00458593          	addi	a1,a1,4
800c21fc:	00478793          	addi	a5,a5,4
800c2200:	01068733          	add	a4,a3,a6
800c2204:	fff6c613          	not	a2,a3
800c2208:	00c77733          	and	a4,a4,a2
800c220c:	01177733          	and	a4,a4,a7
800c2210:	fe0700e3          	beqz	a4,800c21f0 <strcpy+0x38>
800c2214:	0005c703          	lbu	a4,0(a1)
800c2218:	00178793          	addi	a5,a5,1
800c221c:	00158593          	addi	a1,a1,1
800c2220:	fee78fa3          	sb	a4,-1(a5)
800c2224:	00071663          	bnez	a4,800c2230 <strcpy+0x78>
800c2228:	00008067          	ret
800c222c:	00050793          	mv	a5,a0
800c2230:	0005c703          	lbu	a4,0(a1)
800c2234:	00178793          	addi	a5,a5,1
800c2238:	00158593          	addi	a1,a1,1
800c223c:	fee78fa3          	sb	a4,-1(a5)
800c2240:	fe0718e3          	bnez	a4,800c2230 <strcpy+0x78>
800c2244:	00008067          	ret

800c2248 <strcmp>:
800c2248:	00b567b3          	or	a5,a0,a1
800c224c:	0037f793          	andi	a5,a5,3
800c2250:	04079a63          	bnez	a5,800c22a4 <strcmp+0x5c>
800c2254:	00052783          	lw	a5,0(a0)
800c2258:	0005a703          	lw	a4,0(a1)
800c225c:	04e79463          	bne	a5,a4,800c22a4 <strcmp+0x5c>
800c2260:	feff0637          	lui	a2,0xfeff0
800c2264:	808086b7          	lui	a3,0x80808
800c2268:	eff60613          	addi	a2,a2,-257 # fefefeff <__stack_top+0x7e2ee6ff>
800c226c:	08068693          	addi	a3,a3,128 # 80808080 <__stack_top+0xffb06880>
800c2270:	0100006f          	j	800c2280 <strcmp+0x38>
800c2274:	00052783          	lw	a5,0(a0)
800c2278:	0005a703          	lw	a4,0(a1)
800c227c:	02e79463          	bne	a5,a4,800c22a4 <strcmp+0x5c>
800c2280:	00c78733          	add	a4,a5,a2
800c2284:	fff7c793          	not	a5,a5
800c2288:	00f777b3          	and	a5,a4,a5
800c228c:	00d7f7b3          	and	a5,a5,a3
800c2290:	00450513          	addi	a0,a0,4
800c2294:	00458593          	addi	a1,a1,4
800c2298:	fc078ee3          	beqz	a5,800c2274 <strcmp+0x2c>
800c229c:	00000513          	li	a0,0
800c22a0:	00008067          	ret
800c22a4:	00054783          	lbu	a5,0(a0)
800c22a8:	00079a63          	bnez	a5,800c22bc <strcmp+0x74>
800c22ac:	0340006f          	j	800c22e0 <strcmp+0x98>
800c22b0:	00054783          	lbu	a5,0(a0)
800c22b4:	02078063          	beqz	a5,800c22d4 <strcmp+0x8c>
800c22b8:	00068593          	mv	a1,a3
800c22bc:	0005c703          	lbu	a4,0(a1)
800c22c0:	00150513          	addi	a0,a0,1
800c22c4:	00158693          	addi	a3,a1,1
800c22c8:	fef704e3          	beq	a4,a5,800c22b0 <strcmp+0x68>
800c22cc:	40e78533          	sub	a0,a5,a4
800c22d0:	00008067          	ret
800c22d4:	0015c703          	lbu	a4,1(a1)
800c22d8:	40e78533          	sub	a0,a5,a4
800c22dc:	00008067          	ret
800c22e0:	0005c703          	lbu	a4,0(a1)
800c22e4:	fe9ff06f          	j	800c22cc <strcmp+0x84>

800c22e8 <strncpy>:
800c22e8:	00b567b3          	or	a5,a0,a1
800c22ec:	0037f793          	andi	a5,a5,3
800c22f0:	00050713          	mv	a4,a0
800c22f4:	06079463          	bnez	a5,800c235c <strncpy+0x74>
800c22f8:	0005a683          	lw	a3,0(a1)
800c22fc:	feff08b7          	lui	a7,0xfeff0
800c2300:	eff88893          	addi	a7,a7,-257 # fefefeff <__stack_top+0x7e2ee6ff>
800c2304:	011687b3          	add	a5,a3,a7
800c2308:	fff6c813          	not	a6,a3
800c230c:	80808337          	lui	t1,0x80808
800c2310:	0107f7b3          	and	a5,a5,a6
800c2314:	08030313          	addi	t1,t1,128 # 80808080 <__stack_top+0xffb06880>
800c2318:	0067f7b3          	and	a5,a5,t1
800c231c:	04079063          	bnez	a5,800c235c <strncpy+0x74>
800c2320:	00400793          	li	a5,4
800c2324:	02c7fc63          	bgeu	a5,a2,800c235c <strncpy+0x74>
800c2328:	00400e13          	li	t3,4
800c232c:	0080006f          	j	800c2334 <strncpy+0x4c>
800c2330:	02ce7663          	bgeu	t3,a2,800c235c <strncpy+0x74>
800c2334:	00d72023          	sw	a3,0(a4)
800c2338:	0045a683          	lw	a3,4(a1)
800c233c:	00470713          	addi	a4,a4,4
800c2340:	00458593          	addi	a1,a1,4
800c2344:	011687b3          	add	a5,a3,a7
800c2348:	fff6c813          	not	a6,a3
800c234c:	0107f7b3          	and	a5,a5,a6
800c2350:	0067f7b3          	and	a5,a5,t1
800c2354:	ffc60613          	addi	a2,a2,-4
800c2358:	fc078ce3          	beqz	a5,800c2330 <strncpy+0x48>
800c235c:	00160813          	addi	a6,a2,1
800c2360:	00058793          	mv	a5,a1
800c2364:	00b80833          	add	a6,a6,a1
800c2368:	0080006f          	j	800c2370 <strncpy+0x88>
800c236c:	03078663          	beq	a5,a6,800c2398 <strncpy+0xb0>
800c2370:	0007c683          	lbu	a3,0(a5)
800c2374:	00078893          	mv	a7,a5
800c2378:	00170713          	addi	a4,a4,1
800c237c:	fed70fa3          	sb	a3,-1(a4)
800c2380:	00178793          	addi	a5,a5,1
800c2384:	fe0694e3          	bnez	a3,800c236c <strncpy+0x84>
800c2388:	00b60633          	add	a2,a2,a1
800c238c:	00160613          	addi	a2,a2,1
800c2390:	01160463          	beq	a2,a7,800c2398 <strncpy+0xb0>
800c2394:	00008067          	ret
800c2398:	00070023          	sb	zero,0(a4)
800c239c:	00008067          	ret

800c23a0 <strncmp>:
800c23a0:	00b567b3          	or	a5,a0,a1
800c23a4:	0037f793          	andi	a5,a5,3
800c23a8:	06079463          	bnez	a5,800c2410 <strncmp+0x70>
800c23ac:	00052783          	lw	a5,0(a0)
800c23b0:	0005a703          	lw	a4,0(a1)
800c23b4:	04e79e63          	bne	a5,a4,800c2410 <strncmp+0x70>
800c23b8:	00400713          	li	a4,4
800c23bc:	04c77a63          	bgeu	a4,a2,800c2410 <strncmp+0x70>
800c23c0:	feff0837          	lui	a6,0xfeff0
800c23c4:	808086b7          	lui	a3,0x80808
800c23c8:	eff80813          	addi	a6,a6,-257 # fefefeff <__stack_top+0x7e2ee6ff>
800c23cc:	08068693          	addi	a3,a3,128 # 80808080 <__stack_top+0xffb06880>
800c23d0:	00400893          	li	a7,4
800c23d4:	0180006f          	j	800c23ec <strncmp+0x4c>
800c23d8:	00052783          	lw	a5,0(a0)
800c23dc:	0005a703          	lw	a4,0(a1)
800c23e0:	ffc60613          	addi	a2,a2,-4
800c23e4:	02e79663          	bne	a5,a4,800c2410 <strncmp+0x70>
800c23e8:	02c8f463          	bgeu	a7,a2,800c2410 <strncmp+0x70>
800c23ec:	01078733          	add	a4,a5,a6
800c23f0:	fff7c793          	not	a5,a5
800c23f4:	00f777b3          	and	a5,a4,a5
800c23f8:	00d7f7b3          	and	a5,a5,a3
800c23fc:	00450513          	addi	a0,a0,4
800c2400:	00458593          	addi	a1,a1,4
800c2404:	fc078ae3          	beqz	a5,800c23d8 <strncmp+0x38>
800c2408:	00000513          	li	a0,0
800c240c:	00008067          	ret
800c2410:	fff60613          	addi	a2,a2,-1
800c2414:	00050793          	mv	a5,a0
800c2418:	00c50833          	add	a6,a0,a2
800c241c:	00061e63          	bnez	a2,800c2438 <strncmp+0x98>
800c2420:	0400006f          	j	800c2460 <strncmp+0xc0>
800c2424:	00158613          	addi	a2,a1,1
800c2428:	02d51063          	bne	a0,a3,800c2448 <strncmp+0xa8>
800c242c:	03070263          	beq	a4,a6,800c2450 <strncmp+0xb0>
800c2430:	00060593          	mv	a1,a2
800c2434:	00070793          	mv	a5,a4
800c2438:	0007c503          	lbu	a0,0(a5)
800c243c:	0005c683          	lbu	a3,0(a1)
800c2440:	00178713          	addi	a4,a5,1
800c2444:	fe0510e3          	bnez	a0,800c2424 <strncmp+0x84>
800c2448:	40d50533          	sub	a0,a0,a3
800c244c:	00008067          	ret
800c2450:	0017c503          	lbu	a0,1(a5)
800c2454:	0015c683          	lbu	a3,1(a1)
800c2458:	40d50533          	sub	a0,a0,a3
800c245c:	00008067          	ret
800c2460:	00054503          	lbu	a0,0(a0)
800c2464:	0005c683          	lbu	a3,0(a1)
800c2468:	fe1ff06f          	j	800c2448 <strncmp+0xa8>

800c246c <memcpy>:
800c246c:	00b567b3          	or	a5,a0,a1
800c2470:	0037f793          	andi	a5,a5,3
800c2474:	04079c63          	bnez	a5,800c24cc <memcpy+0x60>
800c2478:	00400793          	li	a5,4
800c247c:	04c7f863          	bgeu	a5,a2,800c24cc <memcpy+0x60>
800c2480:	ffb60893          	addi	a7,a2,-5
800c2484:	0028d893          	srli	a7,a7,0x2
800c2488:	00188313          	addi	t1,a7,1
800c248c:	00231313          	slli	t1,t1,0x2
800c2490:	006507b3          	add	a5,a0,t1
800c2494:	00058693          	mv	a3,a1
800c2498:	00050713          	mv	a4,a0
800c249c:	0006a803          	lw	a6,0(a3)
800c24a0:	00470713          	addi	a4,a4,4
800c24a4:	00468693          	addi	a3,a3,4
800c24a8:	ff072e23          	sw	a6,-4(a4)
800c24ac:	fef718e3          	bne	a4,a5,800c249c <memcpy+0x30>
800c24b0:	ffc60613          	addi	a2,a2,-4
800c24b4:	00289893          	slli	a7,a7,0x2
800c24b8:	41160633          	sub	a2,a2,a7
800c24bc:	006585b3          	add	a1,a1,t1
800c24c0:	00c786b3          	add	a3,a5,a2
800c24c4:	00061a63          	bnez	a2,800c24d8 <memcpy+0x6c>
800c24c8:	00008067          	ret
800c24cc:	00050793          	mv	a5,a0
800c24d0:	00c786b3          	add	a3,a5,a2
800c24d4:	fe060ae3          	beqz	a2,800c24c8 <memcpy+0x5c>
800c24d8:	0005c703          	lbu	a4,0(a1)
800c24dc:	00178793          	addi	a5,a5,1
800c24e0:	00158593          	addi	a1,a1,1
800c24e4:	fee78fa3          	sb	a4,-1(a5)
800c24e8:	fed798e3          	bne	a5,a3,800c24d8 <memcpy+0x6c>
800c24ec:	00008067          	ret

800c24f0 <memmove>:
800c24f0:	fff60693          	addi	a3,a2,-1
800c24f4:	02b56a63          	bltu	a0,a1,800c2528 <memmove+0x38>
800c24f8:	00c587b3          	add	a5,a1,a2
800c24fc:	02a7e663          	bltu	a5,a0,800c2528 <memmove+0x38>
800c2500:	00d507b3          	add	a5,a0,a3
800c2504:	00d585b3          	add	a1,a1,a3
800c2508:	fff50693          	addi	a3,a0,-1
800c250c:	08060a63          	beqz	a2,800c25a0 <memmove+0xb0>
800c2510:	0005c703          	lbu	a4,0(a1)
800c2514:	fff78793          	addi	a5,a5,-1
800c2518:	fff58593          	addi	a1,a1,-1
800c251c:	00e780a3          	sb	a4,1(a5)
800c2520:	fef698e3          	bne	a3,a5,800c2510 <memmove+0x20>
800c2524:	00008067          	ret
800c2528:	00b567b3          	or	a5,a0,a1
800c252c:	0037f793          	andi	a5,a5,3
800c2530:	04079663          	bnez	a5,800c257c <memmove+0x8c>
800c2534:	00400793          	li	a5,4
800c2538:	04c7f263          	bgeu	a5,a2,800c257c <memmove+0x8c>
800c253c:	ffb60893          	addi	a7,a2,-5
800c2540:	0028d893          	srli	a7,a7,0x2
800c2544:	00188793          	addi	a5,a7,1
800c2548:	00279793          	slli	a5,a5,0x2
800c254c:	00f58833          	add	a6,a1,a5
800c2550:	00050713          	mv	a4,a0
800c2554:	0005a683          	lw	a3,0(a1)
800c2558:	00458593          	addi	a1,a1,4
800c255c:	00470713          	addi	a4,a4,4
800c2560:	fed72e23          	sw	a3,-4(a4)
800c2564:	ff0598e3          	bne	a1,a6,800c2554 <memmove+0x64>
800c2568:	00289893          	slli	a7,a7,0x2
800c256c:	41160633          	sub	a2,a2,a7
800c2570:	00f507b3          	add	a5,a0,a5
800c2574:	ffb60693          	addi	a3,a2,-5
800c2578:	00c0006f          	j	800c2584 <memmove+0x94>
800c257c:	00050793          	mv	a5,a0
800c2580:	02060263          	beqz	a2,800c25a4 <memmove+0xb4>
800c2584:	00168693          	addi	a3,a3,1
800c2588:	00d586b3          	add	a3,a1,a3
800c258c:	0005c703          	lbu	a4,0(a1)
800c2590:	00158593          	addi	a1,a1,1
800c2594:	00178793          	addi	a5,a5,1
800c2598:	fee78fa3          	sb	a4,-1(a5)
800c259c:	feb698e3          	bne	a3,a1,800c258c <memmove+0x9c>
800c25a0:	00008067          	ret
800c25a4:	00008067          	ret

800c25a8 <memset>:
800c25a8:	0ff5f593          	zext.b	a1,a1
800c25ac:	00c50733          	add	a4,a0,a2
800c25b0:	00050793          	mv	a5,a0
800c25b4:	00060863          	beqz	a2,800c25c4 <memset+0x1c>
800c25b8:	00178793          	addi	a5,a5,1
800c25bc:	feb78fa3          	sb	a1,-1(a5)
800c25c0:	fee79ce3          	bne	a5,a4,800c25b8 <memset+0x10>
800c25c4:	00008067          	ret

800c25c8 <strlen>:
800c25c8:	00054783          	lbu	a5,0(a0)
800c25cc:	00050713          	mv	a4,a0
800c25d0:	00000513          	li	a0,0
800c25d4:	00078c63          	beqz	a5,800c25ec <strlen+0x24>
800c25d8:	00150513          	addi	a0,a0,1
800c25dc:	00a707b3          	add	a5,a4,a0
800c25e0:	0007c783          	lbu	a5,0(a5)
800c25e4:	fe079ae3          	bnez	a5,800c25d8 <strlen+0x10>
800c25e8:	00008067          	ret
800c25ec:	00008067          	ret

800c25f0 <strcat>:
800c25f0:	00054783          	lbu	a5,0(a0)
800c25f4:	02078c63          	beqz	a5,800c262c <strcat+0x3c>
800c25f8:	00050793          	mv	a5,a0
800c25fc:	0017c703          	lbu	a4,1(a5)
800c2600:	00178793          	addi	a5,a5,1
800c2604:	fe071ce3          	bnez	a4,800c25fc <strcat+0xc>
800c2608:	0005c703          	lbu	a4,0(a1)
800c260c:	00070c63          	beqz	a4,800c2624 <strcat+0x34>
800c2610:	00e78023          	sb	a4,0(a5)
800c2614:	0015c703          	lbu	a4,1(a1)
800c2618:	00158593          	addi	a1,a1,1
800c261c:	00178793          	addi	a5,a5,1
800c2620:	fe0718e3          	bnez	a4,800c2610 <strcat+0x20>
800c2624:	00078023          	sb	zero,0(a5)
800c2628:	00008067          	ret
800c262c:	00050793          	mv	a5,a0
800c2630:	fd9ff06f          	j	800c2608 <strcat+0x18>

800c2634 <strncat>:
800c2634:	00054783          	lbu	a5,0(a0)
800c2638:	04078463          	beqz	a5,800c2680 <strncat+0x4c>
800c263c:	00050793          	mv	a5,a0
800c2640:	0017c703          	lbu	a4,1(a5)
800c2644:	00178793          	addi	a5,a5,1
800c2648:	fe071ce3          	bnez	a4,800c2640 <strncat+0xc>
800c264c:	0005c703          	lbu	a4,0(a1)
800c2650:	02070463          	beqz	a4,800c2678 <strncat+0x44>
800c2654:	02060263          	beqz	a2,800c2678 <strncat+0x44>
800c2658:	00c58633          	add	a2,a1,a2
800c265c:	0080006f          	j	800c2664 <strncat+0x30>
800c2660:	00b60c63          	beq	a2,a1,800c2678 <strncat+0x44>
800c2664:	00e78023          	sb	a4,0(a5)
800c2668:	0015c703          	lbu	a4,1(a1)
800c266c:	00158593          	addi	a1,a1,1
800c2670:	00178793          	addi	a5,a5,1
800c2674:	fe0716e3          	bnez	a4,800c2660 <strncat+0x2c>
800c2678:	00078023          	sb	zero,0(a5)
800c267c:	00008067          	ret
800c2680:	00050793          	mv	a5,a0
800c2684:	fc9ff06f          	j	800c264c <strncat+0x18>

800c2688 <clock>:
800c2688:	b00026f3          	csrr	a3,mcycle
800c268c:	b80027f3          	csrr	a5,mcycleh
800c2690:	00100637          	lui	a2,0x100
800c2694:	00c79713          	slli	a4,a5,0xc
800c2698:	0146d593          	srli	a1,a3,0x14
800c269c:	fff60613          	addi	a2,a2,-1 # fffff <__stack_size+0xff7ff>
800c26a0:	00b765b3          	or	a1,a4,a1
800c26a4:	00c5f5b3          	and	a1,a1,a2
800c26a8:	00c6f733          	and	a4,a3,a2
800c26ac:	0087d513          	srli	a0,a5,0x8
800c26b0:	00b70733          	add	a4,a4,a1
800c26b4:	00c575b3          	and	a1,a0,a2
800c26b8:	00b70733          	add	a4,a4,a1
800c26bc:	41f7d613          	srai	a2,a5,0x1f
800c26c0:	01c7d513          	srli	a0,a5,0x1c
800c26c4:	02167593          	andi	a1,a2,33
800c26c8:	00a70733          	add	a4,a4,a0
800c26cc:	00b70733          	add	a4,a4,a1
800c26d0:	01900593          	li	a1,25
800c26d4:	02b77733          	remu	a4,a4,a1
800c26d8:	fe867593          	andi	a1,a2,-24
800c26dc:	c28f6637          	lui	a2,0xc28f6
800c26e0:	c2960613          	addi	a2,a2,-983 # c28f5c29 <__stack_top+0x41bf4429>
800c26e4:	00b70733          	add	a4,a4,a1
800c26e8:	40e68533          	sub	a0,a3,a4
800c26ec:	41f75713          	srai	a4,a4,0x1f
800c26f0:	00a6b6b3          	sltu	a3,a3,a0
800c26f4:	40e787b3          	sub	a5,a5,a4
800c26f8:	8f5c3737          	lui	a4,0x8f5c3
800c26fc:	40d787b3          	sub	a5,a5,a3
800c2700:	8f570713          	addi	a4,a4,-1803 # 8f5c28f5 <__stack_top+0xe8c10f5>
800c2704:	02e50733          	mul	a4,a0,a4
800c2708:	02c787b3          	mul	a5,a5,a2
800c270c:	02c536b3          	mulhu	a3,a0,a2
800c2710:	00e787b3          	add	a5,a5,a4
800c2714:	02c50533          	mul	a0,a0,a2
800c2718:	00d787b3          	add	a5,a5,a3
800c271c:	01f7d693          	srli	a3,a5,0x1f
800c2720:	00a68733          	add	a4,a3,a0
800c2724:	00d73533          	sltu	a0,a4,a3
800c2728:	00f50533          	add	a0,a0,a5
800c272c:	00175713          	srli	a4,a4,0x1
800c2730:	01f51513          	slli	a0,a0,0x1f
800c2734:	00e56533          	or	a0,a0,a4
800c2738:	00008067          	ret

800c273c <inbyte>:
800c273c:	c0000737          	lui	a4,0xc0000
800c2740:	00872783          	lw	a5,8(a4) # c0000008 <__stack_top+0x3f2fe808>
800c2744:	0017f793          	andi	a5,a5,1
800c2748:	fe078ce3          	beqz	a5,800c2740 <inbyte+0x4>
800c274c:	00072503          	lw	a0,0(a4)
800c2750:	0ff57513          	zext.b	a0,a0
800c2754:	00008067          	ret

800c2758 <outbyte>:
800c2758:	00a00793          	li	a5,10
800c275c:	00f50e63          	beq	a0,a5,800c2778 <outbyte+0x20>
800c2760:	c0000737          	lui	a4,0xc0000
800c2764:	00872783          	lw	a5,8(a4) # c0000008 <__stack_top+0x3f2fe808>
800c2768:	0087f793          	andi	a5,a5,8
800c276c:	fe079ce3          	bnez	a5,800c2764 <outbyte+0xc>
800c2770:	00a72223          	sw	a0,4(a4)
800c2774:	00008067          	ret
800c2778:	c0000737          	lui	a4,0xc0000
800c277c:	00872783          	lw	a5,8(a4) # c0000008 <__stack_top+0x3f2fe808>
800c2780:	0087f793          	andi	a5,a5,8
800c2784:	fe079ce3          	bnez	a5,800c277c <outbyte+0x24>
800c2788:	00d00793          	li	a5,13
800c278c:	00f72223          	sw	a5,4(a4)
800c2790:	fd1ff06f          	j	800c2760 <outbyte+0x8>

800c2794 <__udivdi3>:
800c2794:	00050893          	mv	a7,a0
800c2798:	00058313          	mv	t1,a1
800c279c:	00060713          	mv	a4,a2
800c27a0:	00050813          	mv	a6,a0
800c27a4:	00058793          	mv	a5,a1
800c27a8:	28069263          	bnez	a3,800c2a2c <__udivdi3+0x298>
800c27ac:	800d15b7          	lui	a1,0x800d1
800c27b0:	24058593          	addi	a1,a1,576 # 800d1240 <__stack_top+0xff3cfa40>
800c27b4:	0ec37663          	bgeu	t1,a2,800c28a0 <__udivdi3+0x10c>
800c27b8:	000106b7          	lui	a3,0x10
800c27bc:	0cd67863          	bgeu	a2,a3,800c288c <__udivdi3+0xf8>
800c27c0:	10063693          	sltiu	a3,a2,256
800c27c4:	0016c693          	xori	a3,a3,1
800c27c8:	00369693          	slli	a3,a3,0x3
800c27cc:	00d65533          	srl	a0,a2,a3
800c27d0:	00a585b3          	add	a1,a1,a0
800c27d4:	0005c583          	lbu	a1,0(a1)
800c27d8:	02000513          	li	a0,32
800c27dc:	00d586b3          	add	a3,a1,a3
800c27e0:	40d505b3          	sub	a1,a0,a3
800c27e4:	00d50c63          	beq	a0,a3,800c27fc <__udivdi3+0x68>
800c27e8:	00b317b3          	sll	a5,t1,a1
800c27ec:	00d8d6b3          	srl	a3,a7,a3
800c27f0:	00b61733          	sll	a4,a2,a1
800c27f4:	00f6e7b3          	or	a5,a3,a5
800c27f8:	00b89833          	sll	a6,a7,a1
800c27fc:	01075593          	srli	a1,a4,0x10
800c2800:	02b7d333          	divu	t1,a5,a1
800c2804:	01071613          	slli	a2,a4,0x10
800c2808:	01065613          	srli	a2,a2,0x10
800c280c:	02b7f7b3          	remu	a5,a5,a1
800c2810:	00030513          	mv	a0,t1
800c2814:	026608b3          	mul	a7,a2,t1
800c2818:	01079693          	slli	a3,a5,0x10
800c281c:	01085793          	srli	a5,a6,0x10
800c2820:	00d7e7b3          	or	a5,a5,a3
800c2824:	0117fe63          	bgeu	a5,a7,800c2840 <__udivdi3+0xac>
800c2828:	00f707b3          	add	a5,a4,a5
800c282c:	fff30513          	addi	a0,t1,-1
800c2830:	00e7e863          	bltu	a5,a4,800c2840 <__udivdi3+0xac>
800c2834:	0117f663          	bgeu	a5,a7,800c2840 <__udivdi3+0xac>
800c2838:	ffe30513          	addi	a0,t1,-2
800c283c:	00e787b3          	add	a5,a5,a4
800c2840:	411787b3          	sub	a5,a5,a7
800c2844:	02b7d8b3          	divu	a7,a5,a1
800c2848:	01081813          	slli	a6,a6,0x10
800c284c:	01085813          	srli	a6,a6,0x10
800c2850:	02b7f7b3          	remu	a5,a5,a1
800c2854:	031606b3          	mul	a3,a2,a7
800c2858:	01079793          	slli	a5,a5,0x10
800c285c:	00f86833          	or	a6,a6,a5
800c2860:	00088793          	mv	a5,a7
800c2864:	00d87c63          	bgeu	a6,a3,800c287c <__udivdi3+0xe8>
800c2868:	01070833          	add	a6,a4,a6
800c286c:	fff88793          	addi	a5,a7,-1
800c2870:	00e86663          	bltu	a6,a4,800c287c <__udivdi3+0xe8>
800c2874:	00d87463          	bgeu	a6,a3,800c287c <__udivdi3+0xe8>
800c2878:	ffe88793          	addi	a5,a7,-2
800c287c:	01051513          	slli	a0,a0,0x10
800c2880:	00f56533          	or	a0,a0,a5
800c2884:	00000593          	li	a1,0
800c2888:	00008067          	ret
800c288c:	01000537          	lui	a0,0x1000
800c2890:	01000693          	li	a3,16
800c2894:	f2a66ce3          	bltu	a2,a0,800c27cc <__udivdi3+0x38>
800c2898:	01800693          	li	a3,24
800c289c:	f31ff06f          	j	800c27cc <__udivdi3+0x38>
800c28a0:	00000693          	li	a3,0
800c28a4:	00060c63          	beqz	a2,800c28bc <__udivdi3+0x128>
800c28a8:	000107b7          	lui	a5,0x10
800c28ac:	0cf67063          	bgeu	a2,a5,800c296c <__udivdi3+0x1d8>
800c28b0:	10063693          	sltiu	a3,a2,256
800c28b4:	0016c693          	xori	a3,a3,1
800c28b8:	00369693          	slli	a3,a3,0x3
800c28bc:	00d657b3          	srl	a5,a2,a3
800c28c0:	00f585b3          	add	a1,a1,a5
800c28c4:	0005c783          	lbu	a5,0(a1)
800c28c8:	00d787b3          	add	a5,a5,a3
800c28cc:	02000693          	li	a3,32
800c28d0:	40f685b3          	sub	a1,a3,a5
800c28d4:	0af69663          	bne	a3,a5,800c2980 <__udivdi3+0x1ec>
800c28d8:	40c307b3          	sub	a5,t1,a2
800c28dc:	00100593          	li	a1,1
800c28e0:	01075893          	srli	a7,a4,0x10
800c28e4:	0317de33          	divu	t3,a5,a7
800c28e8:	01071613          	slli	a2,a4,0x10
800c28ec:	01065613          	srli	a2,a2,0x10
800c28f0:	01085693          	srli	a3,a6,0x10
800c28f4:	0317f7b3          	remu	a5,a5,a7
800c28f8:	000e0513          	mv	a0,t3
800c28fc:	03c60333          	mul	t1,a2,t3
800c2900:	01079793          	slli	a5,a5,0x10
800c2904:	00f6e7b3          	or	a5,a3,a5
800c2908:	0067fe63          	bgeu	a5,t1,800c2924 <__udivdi3+0x190>
800c290c:	00f707b3          	add	a5,a4,a5
800c2910:	fffe0513          	addi	a0,t3,-1
800c2914:	00e7e863          	bltu	a5,a4,800c2924 <__udivdi3+0x190>
800c2918:	0067f663          	bgeu	a5,t1,800c2924 <__udivdi3+0x190>
800c291c:	ffee0513          	addi	a0,t3,-2
800c2920:	00e787b3          	add	a5,a5,a4
800c2924:	406787b3          	sub	a5,a5,t1
800c2928:	0317d333          	divu	t1,a5,a7
800c292c:	01081813          	slli	a6,a6,0x10
800c2930:	01085813          	srli	a6,a6,0x10
800c2934:	0317f7b3          	remu	a5,a5,a7
800c2938:	026606b3          	mul	a3,a2,t1
800c293c:	01079793          	slli	a5,a5,0x10
800c2940:	00f86833          	or	a6,a6,a5
800c2944:	00030793          	mv	a5,t1
800c2948:	00d87c63          	bgeu	a6,a3,800c2960 <__udivdi3+0x1cc>
800c294c:	01070833          	add	a6,a4,a6
800c2950:	fff30793          	addi	a5,t1,-1
800c2954:	00e86663          	bltu	a6,a4,800c2960 <__udivdi3+0x1cc>
800c2958:	00d87463          	bgeu	a6,a3,800c2960 <__udivdi3+0x1cc>
800c295c:	ffe30793          	addi	a5,t1,-2
800c2960:	01051513          	slli	a0,a0,0x10
800c2964:	00f56533          	or	a0,a0,a5
800c2968:	00008067          	ret
800c296c:	010007b7          	lui	a5,0x1000
800c2970:	01000693          	li	a3,16
800c2974:	f4f664e3          	bltu	a2,a5,800c28bc <__udivdi3+0x128>
800c2978:	01800693          	li	a3,24
800c297c:	f41ff06f          	j	800c28bc <__udivdi3+0x128>
800c2980:	00b61733          	sll	a4,a2,a1
800c2984:	00f356b3          	srl	a3,t1,a5
800c2988:	01075513          	srli	a0,a4,0x10
800c298c:	00b31333          	sll	t1,t1,a1
800c2990:	00f8d7b3          	srl	a5,a7,a5
800c2994:	0067e7b3          	or	a5,a5,t1
800c2998:	02a6d333          	divu	t1,a3,a0
800c299c:	01071613          	slli	a2,a4,0x10
800c29a0:	01065613          	srli	a2,a2,0x10
800c29a4:	00b89833          	sll	a6,a7,a1
800c29a8:	02a6f6b3          	remu	a3,a3,a0
800c29ac:	026608b3          	mul	a7,a2,t1
800c29b0:	01069593          	slli	a1,a3,0x10
800c29b4:	0107d693          	srli	a3,a5,0x10
800c29b8:	00b6e6b3          	or	a3,a3,a1
800c29bc:	00030593          	mv	a1,t1
800c29c0:	0116fe63          	bgeu	a3,a7,800c29dc <__udivdi3+0x248>
800c29c4:	00d706b3          	add	a3,a4,a3
800c29c8:	fff30593          	addi	a1,t1,-1
800c29cc:	00e6e863          	bltu	a3,a4,800c29dc <__udivdi3+0x248>
800c29d0:	0116f663          	bgeu	a3,a7,800c29dc <__udivdi3+0x248>
800c29d4:	ffe30593          	addi	a1,t1,-2
800c29d8:	00e686b3          	add	a3,a3,a4
800c29dc:	411686b3          	sub	a3,a3,a7
800c29e0:	02a6d8b3          	divu	a7,a3,a0
800c29e4:	01079793          	slli	a5,a5,0x10
800c29e8:	0107d793          	srli	a5,a5,0x10
800c29ec:	02a6f6b3          	remu	a3,a3,a0
800c29f0:	03160633          	mul	a2,a2,a7
800c29f4:	01069693          	slli	a3,a3,0x10
800c29f8:	00d7e7b3          	or	a5,a5,a3
800c29fc:	00088693          	mv	a3,a7
800c2a00:	00c7fe63          	bgeu	a5,a2,800c2a1c <__udivdi3+0x288>
800c2a04:	00f707b3          	add	a5,a4,a5
800c2a08:	fff88693          	addi	a3,a7,-1
800c2a0c:	00e7e863          	bltu	a5,a4,800c2a1c <__udivdi3+0x288>
800c2a10:	00c7f663          	bgeu	a5,a2,800c2a1c <__udivdi3+0x288>
800c2a14:	ffe88693          	addi	a3,a7,-2
800c2a18:	00e787b3          	add	a5,a5,a4
800c2a1c:	01059593          	slli	a1,a1,0x10
800c2a20:	40c787b3          	sub	a5,a5,a2
800c2a24:	00d5e5b3          	or	a1,a1,a3
800c2a28:	eb9ff06f          	j	800c28e0 <__udivdi3+0x14c>
800c2a2c:	18d5e663          	bltu	a1,a3,800c2bb8 <__udivdi3+0x424>
800c2a30:	000107b7          	lui	a5,0x10
800c2a34:	04f6f463          	bgeu	a3,a5,800c2a7c <__udivdi3+0x2e8>
800c2a38:	1006b713          	sltiu	a4,a3,256
800c2a3c:	00174713          	xori	a4,a4,1
800c2a40:	00371713          	slli	a4,a4,0x3
800c2a44:	800d17b7          	lui	a5,0x800d1
800c2a48:	00e6d5b3          	srl	a1,a3,a4
800c2a4c:	24078793          	addi	a5,a5,576 # 800d1240 <__stack_top+0xff3cfa40>
800c2a50:	00b787b3          	add	a5,a5,a1
800c2a54:	0007c783          	lbu	a5,0(a5)
800c2a58:	00e787b3          	add	a5,a5,a4
800c2a5c:	02000713          	li	a4,32
800c2a60:	40f705b3          	sub	a1,a4,a5
800c2a64:	02f71663          	bne	a4,a5,800c2a90 <__udivdi3+0x2fc>
800c2a68:	00100513          	li	a0,1
800c2a6c:	e066eee3          	bltu	a3,t1,800c2888 <__udivdi3+0xf4>
800c2a70:	00c8b533          	sltu	a0,a7,a2
800c2a74:	00154513          	xori	a0,a0,1
800c2a78:	00008067          	ret
800c2a7c:	010007b7          	lui	a5,0x1000
800c2a80:	01000713          	li	a4,16
800c2a84:	fcf6e0e3          	bltu	a3,a5,800c2a44 <__udivdi3+0x2b0>
800c2a88:	01800713          	li	a4,24
800c2a8c:	fb9ff06f          	j	800c2a44 <__udivdi3+0x2b0>
800c2a90:	00f65733          	srl	a4,a2,a5
800c2a94:	00b696b3          	sll	a3,a3,a1
800c2a98:	00d766b3          	or	a3,a4,a3
800c2a9c:	00f35733          	srl	a4,t1,a5
800c2aa0:	00b31333          	sll	t1,t1,a1
800c2aa4:	00f8d7b3          	srl	a5,a7,a5
800c2aa8:	0067e7b3          	or	a5,a5,t1
800c2aac:	0106d313          	srli	t1,a3,0x10
800c2ab0:	02675eb3          	divu	t4,a4,t1
800c2ab4:	01069813          	slli	a6,a3,0x10
800c2ab8:	01085813          	srli	a6,a6,0x10
800c2abc:	00b61633          	sll	a2,a2,a1
800c2ac0:	02677733          	remu	a4,a4,t1
800c2ac4:	03d80e33          	mul	t3,a6,t4
800c2ac8:	01071513          	slli	a0,a4,0x10
800c2acc:	0107d713          	srli	a4,a5,0x10
800c2ad0:	00a76733          	or	a4,a4,a0
800c2ad4:	000e8513          	mv	a0,t4
800c2ad8:	01c77e63          	bgeu	a4,t3,800c2af4 <__udivdi3+0x360>
800c2adc:	00e68733          	add	a4,a3,a4
800c2ae0:	fffe8513          	addi	a0,t4,-1
800c2ae4:	00d76863          	bltu	a4,a3,800c2af4 <__udivdi3+0x360>
800c2ae8:	01c77663          	bgeu	a4,t3,800c2af4 <__udivdi3+0x360>
800c2aec:	ffee8513          	addi	a0,t4,-2
800c2af0:	00d70733          	add	a4,a4,a3
800c2af4:	41c70733          	sub	a4,a4,t3
800c2af8:	02675e33          	divu	t3,a4,t1
800c2afc:	01079793          	slli	a5,a5,0x10
800c2b00:	0107d793          	srli	a5,a5,0x10
800c2b04:	02677733          	remu	a4,a4,t1
800c2b08:	03c80833          	mul	a6,a6,t3
800c2b0c:	01071713          	slli	a4,a4,0x10
800c2b10:	00e7e7b3          	or	a5,a5,a4
800c2b14:	000e0713          	mv	a4,t3
800c2b18:	0107fe63          	bgeu	a5,a6,800c2b34 <__udivdi3+0x3a0>
800c2b1c:	00f687b3          	add	a5,a3,a5
800c2b20:	fffe0713          	addi	a4,t3,-1
800c2b24:	00d7e863          	bltu	a5,a3,800c2b34 <__udivdi3+0x3a0>
800c2b28:	0107f663          	bgeu	a5,a6,800c2b34 <__udivdi3+0x3a0>
800c2b2c:	ffee0713          	addi	a4,t3,-2
800c2b30:	00d787b3          	add	a5,a5,a3
800c2b34:	01051513          	slli	a0,a0,0x10
800c2b38:	00010e37          	lui	t3,0x10
800c2b3c:	00e56533          	or	a0,a0,a4
800c2b40:	fffe0693          	addi	a3,t3,-1 # ffff <__stack_size+0xf7ff>
800c2b44:	00d57733          	and	a4,a0,a3
800c2b48:	410787b3          	sub	a5,a5,a6
800c2b4c:	00d676b3          	and	a3,a2,a3
800c2b50:	01055813          	srli	a6,a0,0x10
800c2b54:	01065613          	srli	a2,a2,0x10
800c2b58:	02d70333          	mul	t1,a4,a3
800c2b5c:	02d806b3          	mul	a3,a6,a3
800c2b60:	02c70733          	mul	a4,a4,a2
800c2b64:	02c80833          	mul	a6,a6,a2
800c2b68:	00d70633          	add	a2,a4,a3
800c2b6c:	01035713          	srli	a4,t1,0x10
800c2b70:	00c70733          	add	a4,a4,a2
800c2b74:	00d77463          	bgeu	a4,a3,800c2b7c <__udivdi3+0x3e8>
800c2b78:	01c80833          	add	a6,a6,t3
800c2b7c:	01075693          	srli	a3,a4,0x10
800c2b80:	010686b3          	add	a3,a3,a6
800c2b84:	02d7e663          	bltu	a5,a3,800c2bb0 <__udivdi3+0x41c>
800c2b88:	ced79ee3          	bne	a5,a3,800c2884 <__udivdi3+0xf0>
800c2b8c:	000107b7          	lui	a5,0x10
800c2b90:	fff78793          	addi	a5,a5,-1 # ffff <__stack_size+0xf7ff>
800c2b94:	00f77733          	and	a4,a4,a5
800c2b98:	01071713          	slli	a4,a4,0x10
800c2b9c:	00f37333          	and	t1,t1,a5
800c2ba0:	00b898b3          	sll	a7,a7,a1
800c2ba4:	00670733          	add	a4,a4,t1
800c2ba8:	00000593          	li	a1,0
800c2bac:	cce8fee3          	bgeu	a7,a4,800c2888 <__udivdi3+0xf4>
800c2bb0:	fff50513          	addi	a0,a0,-1 # ffffff <__heap_size+0x7fffff>
800c2bb4:	cd1ff06f          	j	800c2884 <__udivdi3+0xf0>
800c2bb8:	00000593          	li	a1,0
800c2bbc:	00000513          	li	a0,0
800c2bc0:	00008067          	ret

800c2bc4 <__adddf3>:
800c2bc4:	00100737          	lui	a4,0x100
800c2bc8:	fff70713          	addi	a4,a4,-1 # fffff <__stack_size+0xff7ff>
800c2bcc:	fe010113          	addi	sp,sp,-32
800c2bd0:	00b777b3          	and	a5,a4,a1
800c2bd4:	0146d893          	srli	a7,a3,0x14
800c2bd8:	00d77733          	and	a4,a4,a3
800c2bdc:	00812c23          	sw	s0,24(sp)
800c2be0:	00912a23          	sw	s1,20(sp)
800c2be4:	0145d413          	srli	s0,a1,0x14
800c2be8:	01f5d493          	srli	s1,a1,0x1f
800c2bec:	00379593          	slli	a1,a5,0x3
800c2bf0:	01d55793          	srli	a5,a0,0x1d
800c2bf4:	7ff47413          	andi	s0,s0,2047
800c2bf8:	00b7e7b3          	or	a5,a5,a1
800c2bfc:	7ff8f893          	andi	a7,a7,2047
800c2c00:	00371593          	slli	a1,a4,0x3
800c2c04:	00112e23          	sw	ra,28(sp)
800c2c08:	01d65713          	srli	a4,a2,0x1d
800c2c0c:	01212823          	sw	s2,16(sp)
800c2c10:	01312623          	sw	s3,12(sp)
800c2c14:	01f6d693          	srli	a3,a3,0x1f
800c2c18:	00b76733          	or	a4,a4,a1
800c2c1c:	00351513          	slli	a0,a0,0x3
800c2c20:	00361613          	slli	a2,a2,0x3
800c2c24:	411405b3          	sub	a1,s0,a7
800c2c28:	30d49a63          	bne	s1,a3,800c2f3c <__adddf3+0x378>
800c2c2c:	16b05463          	blez	a1,800c2d94 <__adddf3+0x1d0>
800c2c30:	0a089063          	bnez	a7,800c2cd0 <__adddf3+0x10c>
800c2c34:	00c766b3          	or	a3,a4,a2
800c2c38:	70068863          	beqz	a3,800c3348 <__adddf3+0x784>
800c2c3c:	fff58693          	addi	a3,a1,-1
800c2c40:	08069063          	bnez	a3,800c2cc0 <__adddf3+0xfc>
800c2c44:	00c50633          	add	a2,a0,a2
800c2c48:	00a636b3          	sltu	a3,a2,a0
800c2c4c:	00e78733          	add	a4,a5,a4
800c2c50:	00d707b3          	add	a5,a4,a3
800c2c54:	00800737          	lui	a4,0x800
800c2c58:	00e7f733          	and	a4,a5,a4
800c2c5c:	00060513          	mv	a0,a2
800c2c60:	2a071863          	bnez	a4,800c2f10 <__adddf3+0x34c>
800c2c64:	00100413          	li	s0,1
800c2c68:	00757713          	andi	a4,a0,7
800c2c6c:	02070063          	beqz	a4,800c2c8c <__adddf3+0xc8>
800c2c70:	00f57713          	andi	a4,a0,15
800c2c74:	00400693          	li	a3,4
800c2c78:	00d70a63          	beq	a4,a3,800c2c8c <__adddf3+0xc8>
800c2c7c:	00450713          	addi	a4,a0,4
800c2c80:	00a736b3          	sltu	a3,a4,a0
800c2c84:	00d787b3          	add	a5,a5,a3
800c2c88:	00070513          	mv	a0,a4
800c2c8c:	008005b7          	lui	a1,0x800
800c2c90:	00b7f5b3          	and	a1,a5,a1
800c2c94:	6c058c63          	beqz	a1,800c336c <__adddf3+0x7a8>
800c2c98:	00140413          	addi	s0,s0,1
800c2c9c:	7ff00713          	li	a4,2047
800c2ca0:	0ae40263          	beq	s0,a4,800c2d44 <__adddf3+0x180>
800c2ca4:	ff800737          	lui	a4,0xff800
800c2ca8:	fff70713          	addi	a4,a4,-1 # ff7fffff <__stack_top+0x7eafe7ff>
800c2cac:	00e7f7b3          	and	a5,a5,a4
800c2cb0:	00355513          	srli	a0,a0,0x3
800c2cb4:	01d79593          	slli	a1,a5,0x1d
800c2cb8:	00a5e5b3          	or	a1,a1,a0
800c2cbc:	6240006f          	j	800c32e0 <__adddf3+0x71c>
800c2cc0:	7ff00813          	li	a6,2047
800c2cc4:	09059463          	bne	a1,a6,800c2d4c <__adddf3+0x188>
800c2cc8:	7ff00413          	li	s0,2047
800c2ccc:	f9dff06f          	j	800c2c68 <__adddf3+0xa4>
800c2cd0:	7ff00693          	li	a3,2047
800c2cd4:	f8d40ae3          	beq	s0,a3,800c2c68 <__adddf3+0xa4>
800c2cd8:	03800693          	li	a3,56
800c2cdc:	06b6cc63          	blt	a3,a1,800c2d54 <__adddf3+0x190>
800c2ce0:	008006b7          	lui	a3,0x800
800c2ce4:	00d76733          	or	a4,a4,a3
800c2ce8:	00058693          	mv	a3,a1
800c2cec:	01f00593          	li	a1,31
800c2cf0:	06d5c863          	blt	a1,a3,800c2d60 <__adddf3+0x19c>
800c2cf4:	02000813          	li	a6,32
800c2cf8:	40d80833          	sub	a6,a6,a3
800c2cfc:	00d658b3          	srl	a7,a2,a3
800c2d00:	010715b3          	sll	a1,a4,a6
800c2d04:	01061833          	sll	a6,a2,a6
800c2d08:	0115e5b3          	or	a1,a1,a7
800c2d0c:	01003833          	snez	a6,a6
800c2d10:	0105e633          	or	a2,a1,a6
800c2d14:	00d756b3          	srl	a3,a4,a3
800c2d18:	00a60533          	add	a0,a2,a0
800c2d1c:	00f686b3          	add	a3,a3,a5
800c2d20:	00c53633          	sltu	a2,a0,a2
800c2d24:	00c687b3          	add	a5,a3,a2
800c2d28:	00800737          	lui	a4,0x800
800c2d2c:	00e7f733          	and	a4,a5,a4
800c2d30:	f2070ce3          	beqz	a4,800c2c68 <__adddf3+0xa4>
800c2d34:	00140413          	addi	s0,s0,1
800c2d38:	7ff00713          	li	a4,2047
800c2d3c:	1ce41c63          	bne	s0,a4,800c2f14 <__adddf3+0x350>
800c2d40:	7ff00413          	li	s0,2047
800c2d44:	00000793          	li	a5,0
800c2d48:	1900006f          	j	800c2ed8 <__adddf3+0x314>
800c2d4c:	03800593          	li	a1,56
800c2d50:	f8d5dee3          	bge	a1,a3,800c2cec <__adddf3+0x128>
800c2d54:	00000693          	li	a3,0
800c2d58:	00100613          	li	a2,1
800c2d5c:	fbdff06f          	j	800c2d18 <__adddf3+0x154>
800c2d60:	fe068593          	addi	a1,a3,-32 # 7fffe0 <__stack_size+0x7ff7e0>
800c2d64:	02000893          	li	a7,32
800c2d68:	00b755b3          	srl	a1,a4,a1
800c2d6c:	00000813          	li	a6,0
800c2d70:	01168863          	beq	a3,a7,800c2d80 <__adddf3+0x1bc>
800c2d74:	04000813          	li	a6,64
800c2d78:	40d80833          	sub	a6,a6,a3
800c2d7c:	01071833          	sll	a6,a4,a6
800c2d80:	00c86833          	or	a6,a6,a2
800c2d84:	01003833          	snez	a6,a6
800c2d88:	0105e633          	or	a2,a1,a6
800c2d8c:	00000693          	li	a3,0
800c2d90:	f89ff06f          	j	800c2d18 <__adddf3+0x154>
800c2d94:	0c058e63          	beqz	a1,800c2e70 <__adddf3+0x2ac>
800c2d98:	408885b3          	sub	a1,a7,s0
800c2d9c:	02041463          	bnez	s0,800c2dc4 <__adddf3+0x200>
800c2da0:	00a7e6b3          	or	a3,a5,a0
800c2da4:	58068e63          	beqz	a3,800c3340 <__adddf3+0x77c>
800c2da8:	fff58693          	addi	a3,a1,-1 # 7fffff <__stack_size+0x7ff7ff>
800c2dac:	e8068ce3          	beqz	a3,800c2c44 <__adddf3+0x80>
800c2db0:	7ff00813          	li	a6,2047
800c2db4:	07059a63          	bne	a1,a6,800c2e28 <__adddf3+0x264>
800c2db8:	00070793          	mv	a5,a4
800c2dbc:	00060513          	mv	a0,a2
800c2dc0:	f09ff06f          	j	800c2cc8 <__adddf3+0x104>
800c2dc4:	7ff00693          	li	a3,2047
800c2dc8:	fed888e3          	beq	a7,a3,800c2db8 <__adddf3+0x1f4>
800c2dcc:	03800693          	li	a3,56
800c2dd0:	06b6c063          	blt	a3,a1,800c2e30 <__adddf3+0x26c>
800c2dd4:	008006b7          	lui	a3,0x800
800c2dd8:	00d7e7b3          	or	a5,a5,a3
800c2ddc:	00058693          	mv	a3,a1
800c2de0:	01f00593          	li	a1,31
800c2de4:	04d5cc63          	blt	a1,a3,800c2e3c <__adddf3+0x278>
800c2de8:	02000813          	li	a6,32
800c2dec:	40d80833          	sub	a6,a6,a3
800c2df0:	010795b3          	sll	a1,a5,a6
800c2df4:	00d55333          	srl	t1,a0,a3
800c2df8:	01051833          	sll	a6,a0,a6
800c2dfc:	0065e5b3          	or	a1,a1,t1
800c2e00:	01003833          	snez	a6,a6
800c2e04:	0105e5b3          	or	a1,a1,a6
800c2e08:	00d7d6b3          	srl	a3,a5,a3
800c2e0c:	00c58633          	add	a2,a1,a2
800c2e10:	00e686b3          	add	a3,a3,a4
800c2e14:	00b635b3          	sltu	a1,a2,a1
800c2e18:	00060513          	mv	a0,a2
800c2e1c:	00b687b3          	add	a5,a3,a1
800c2e20:	00088413          	mv	s0,a7
800c2e24:	f05ff06f          	j	800c2d28 <__adddf3+0x164>
800c2e28:	03800593          	li	a1,56
800c2e2c:	fad5dae3          	bge	a1,a3,800c2de0 <__adddf3+0x21c>
800c2e30:	00000693          	li	a3,0
800c2e34:	00100593          	li	a1,1
800c2e38:	fd5ff06f          	j	800c2e0c <__adddf3+0x248>
800c2e3c:	fe068593          	addi	a1,a3,-32 # 7fffe0 <__stack_size+0x7ff7e0>
800c2e40:	02000313          	li	t1,32
800c2e44:	00b7d5b3          	srl	a1,a5,a1
800c2e48:	00000813          	li	a6,0
800c2e4c:	00668863          	beq	a3,t1,800c2e5c <__adddf3+0x298>
800c2e50:	04000813          	li	a6,64
800c2e54:	40d80833          	sub	a6,a6,a3
800c2e58:	01079833          	sll	a6,a5,a6
800c2e5c:	00a86833          	or	a6,a6,a0
800c2e60:	01003833          	snez	a6,a6
800c2e64:	0105e5b3          	or	a1,a1,a6
800c2e68:	00000693          	li	a3,0
800c2e6c:	fa1ff06f          	j	800c2e0c <__adddf3+0x248>
800c2e70:	00140693          	addi	a3,s0,1
800c2e74:	7fe6f593          	andi	a1,a3,2046
800c2e78:	06059463          	bnez	a1,800c2ee0 <__adddf3+0x31c>
800c2e7c:	00a7e6b3          	or	a3,a5,a0
800c2e80:	04041063          	bnez	s0,800c2ec0 <__adddf3+0x2fc>
800c2e84:	4c068663          	beqz	a3,800c3350 <__adddf3+0x78c>
800c2e88:	00c766b3          	or	a3,a4,a2
800c2e8c:	dc068ee3          	beqz	a3,800c2c68 <__adddf3+0xa4>
800c2e90:	00c50633          	add	a2,a0,a2
800c2e94:	00a636b3          	sltu	a3,a2,a0
800c2e98:	00e78733          	add	a4,a5,a4
800c2e9c:	00d707b3          	add	a5,a4,a3
800c2ea0:	00800737          	lui	a4,0x800
800c2ea4:	00e7f733          	and	a4,a5,a4
800c2ea8:	00060513          	mv	a0,a2
800c2eac:	da070ee3          	beqz	a4,800c2c68 <__adddf3+0xa4>
800c2eb0:	ff800737          	lui	a4,0xff800
800c2eb4:	fff70713          	addi	a4,a4,-1 # ff7fffff <__stack_top+0x7eafe7ff>
800c2eb8:	00e7f7b3          	and	a5,a5,a4
800c2ebc:	da9ff06f          	j	800c2c64 <__adddf3+0xa0>
800c2ec0:	ee068ce3          	beqz	a3,800c2db8 <__adddf3+0x1f4>
800c2ec4:	00c76633          	or	a2,a4,a2
800c2ec8:	e00600e3          	beqz	a2,800c2cc8 <__adddf3+0x104>
800c2ecc:	00000493          	li	s1,0
800c2ed0:	7ff00413          	li	s0,2047
800c2ed4:	000807b7          	lui	a5,0x80
800c2ed8:	00000593          	li	a1,0
800c2edc:	4080006f          	j	800c32e4 <__adddf3+0x720>
800c2ee0:	7ff00593          	li	a1,2047
800c2ee4:	e4b68ee3          	beq	a3,a1,800c2d40 <__adddf3+0x17c>
800c2ee8:	00c50633          	add	a2,a0,a2
800c2eec:	00a63533          	sltu	a0,a2,a0
800c2ef0:	00e78733          	add	a4,a5,a4
800c2ef4:	00a70733          	add	a4,a4,a0
800c2ef8:	01f71513          	slli	a0,a4,0x1f
800c2efc:	00165613          	srli	a2,a2,0x1
800c2f00:	00c56533          	or	a0,a0,a2
800c2f04:	00175793          	srli	a5,a4,0x1
800c2f08:	00068413          	mv	s0,a3
800c2f0c:	d5dff06f          	j	800c2c68 <__adddf3+0xa4>
800c2f10:	00200413          	li	s0,2
800c2f14:	ff800737          	lui	a4,0xff800
800c2f18:	fff70713          	addi	a4,a4,-1 # ff7fffff <__stack_top+0x7eafe7ff>
800c2f1c:	00e7f7b3          	and	a5,a5,a4
800c2f20:	00155713          	srli	a4,a0,0x1
800c2f24:	00157513          	andi	a0,a0,1
800c2f28:	00a76733          	or	a4,a4,a0
800c2f2c:	01f79513          	slli	a0,a5,0x1f
800c2f30:	00e56533          	or	a0,a0,a4
800c2f34:	0017d793          	srli	a5,a5,0x1
800c2f38:	d31ff06f          	j	800c2c68 <__adddf3+0xa4>
800c2f3c:	0eb05e63          	blez	a1,800c3038 <__adddf3+0x474>
800c2f40:	04089663          	bnez	a7,800c2f8c <__adddf3+0x3c8>
800c2f44:	00c766b3          	or	a3,a4,a2
800c2f48:	40068063          	beqz	a3,800c3348 <__adddf3+0x784>
800c2f4c:	fff58693          	addi	a3,a1,-1
800c2f50:	02069063          	bnez	a3,800c2f70 <__adddf3+0x3ac>
800c2f54:	40c50633          	sub	a2,a0,a2
800c2f58:	00c536b3          	sltu	a3,a0,a2
800c2f5c:	40e78733          	sub	a4,a5,a4
800c2f60:	00060513          	mv	a0,a2
800c2f64:	40d707b3          	sub	a5,a4,a3
800c2f68:	00100413          	li	s0,1
800c2f6c:	07c0006f          	j	800c2fe8 <__adddf3+0x424>
800c2f70:	7ff00813          	li	a6,2047
800c2f74:	d5058ae3          	beq	a1,a6,800c2cc8 <__adddf3+0x104>
800c2f78:	03800593          	li	a1,56
800c2f7c:	02d5d663          	bge	a1,a3,800c2fa8 <__adddf3+0x3e4>
800c2f80:	00000693          	li	a3,0
800c2f84:	00100613          	li	a2,1
800c2f88:	04c0006f          	j	800c2fd4 <__adddf3+0x410>
800c2f8c:	7ff00693          	li	a3,2047
800c2f90:	ccd40ce3          	beq	s0,a3,800c2c68 <__adddf3+0xa4>
800c2f94:	03800693          	li	a3,56
800c2f98:	feb6c4e3          	blt	a3,a1,800c2f80 <__adddf3+0x3bc>
800c2f9c:	008006b7          	lui	a3,0x800
800c2fa0:	00d76733          	or	a4,a4,a3
800c2fa4:	00058693          	mv	a3,a1
800c2fa8:	01f00593          	li	a1,31
800c2fac:	04d5cc63          	blt	a1,a3,800c3004 <__adddf3+0x440>
800c2fb0:	02000813          	li	a6,32
800c2fb4:	40d80833          	sub	a6,a6,a3
800c2fb8:	00d658b3          	srl	a7,a2,a3
800c2fbc:	010715b3          	sll	a1,a4,a6
800c2fc0:	01061833          	sll	a6,a2,a6
800c2fc4:	0115e5b3          	or	a1,a1,a7
800c2fc8:	01003833          	snez	a6,a6
800c2fcc:	0105e633          	or	a2,a1,a6
800c2fd0:	00d756b3          	srl	a3,a4,a3
800c2fd4:	40c50633          	sub	a2,a0,a2
800c2fd8:	00c53733          	sltu	a4,a0,a2
800c2fdc:	40d786b3          	sub	a3,a5,a3
800c2fe0:	00060513          	mv	a0,a2
800c2fe4:	40e687b3          	sub	a5,a3,a4
800c2fe8:	00800737          	lui	a4,0x800
800c2fec:	00e7f6b3          	and	a3,a5,a4
800c2ff0:	c6068ce3          	beqz	a3,800c2c68 <__adddf3+0xa4>
800c2ff4:	fff70713          	addi	a4,a4,-1 # 7fffff <__stack_size+0x7ff7ff>
800c2ff8:	00e7f9b3          	and	s3,a5,a4
800c2ffc:	00050913          	mv	s2,a0
800c3000:	1fc0006f          	j	800c31fc <__adddf3+0x638>
800c3004:	fe068593          	addi	a1,a3,-32 # 7fffe0 <__stack_size+0x7ff7e0>
800c3008:	02000893          	li	a7,32
800c300c:	00b755b3          	srl	a1,a4,a1
800c3010:	00000813          	li	a6,0
800c3014:	01168863          	beq	a3,a7,800c3024 <__adddf3+0x460>
800c3018:	04000813          	li	a6,64
800c301c:	40d80833          	sub	a6,a6,a3
800c3020:	01071833          	sll	a6,a4,a6
800c3024:	00c86833          	or	a6,a6,a2
800c3028:	01003833          	snez	a6,a6
800c302c:	0105e633          	or	a2,a1,a6
800c3030:	00000693          	li	a3,0
800c3034:	fa1ff06f          	j	800c2fd4 <__adddf3+0x410>
800c3038:	0e058c63          	beqz	a1,800c3130 <__adddf3+0x56c>
800c303c:	40888833          	sub	a6,a7,s0
800c3040:	04041263          	bnez	s0,800c3084 <__adddf3+0x4c0>
800c3044:	00a7e5b3          	or	a1,a5,a0
800c3048:	30058a63          	beqz	a1,800c335c <__adddf3+0x798>
800c304c:	fff80593          	addi	a1,a6,-1
800c3050:	00059e63          	bnez	a1,800c306c <__adddf3+0x4a8>
800c3054:	40a60533          	sub	a0,a2,a0
800c3058:	40f70733          	sub	a4,a4,a5
800c305c:	00a63633          	sltu	a2,a2,a0
800c3060:	40c707b3          	sub	a5,a4,a2
800c3064:	00068493          	mv	s1,a3
800c3068:	f01ff06f          	j	800c2f68 <__adddf3+0x3a4>
800c306c:	7ff00313          	li	t1,2047
800c3070:	06681c63          	bne	a6,t1,800c30e8 <__adddf3+0x524>
800c3074:	00070793          	mv	a5,a4
800c3078:	00060513          	mv	a0,a2
800c307c:	7ff00413          	li	s0,2047
800c3080:	0d80006f          	j	800c3158 <__adddf3+0x594>
800c3084:	7ff00593          	li	a1,2047
800c3088:	feb886e3          	beq	a7,a1,800c3074 <__adddf3+0x4b0>
800c308c:	03800593          	li	a1,56
800c3090:	0705c063          	blt	a1,a6,800c30f0 <__adddf3+0x52c>
800c3094:	008005b7          	lui	a1,0x800
800c3098:	00b7e7b3          	or	a5,a5,a1
800c309c:	00080593          	mv	a1,a6
800c30a0:	01f00813          	li	a6,31
800c30a4:	04b84c63          	blt	a6,a1,800c30fc <__adddf3+0x538>
800c30a8:	02000313          	li	t1,32
800c30ac:	40b30333          	sub	t1,t1,a1
800c30b0:	00b55e33          	srl	t3,a0,a1
800c30b4:	00679833          	sll	a6,a5,t1
800c30b8:	00651333          	sll	t1,a0,t1
800c30bc:	01c86833          	or	a6,a6,t3
800c30c0:	00603333          	snez	t1,t1
800c30c4:	00686533          	or	a0,a6,t1
800c30c8:	00b7d5b3          	srl	a1,a5,a1
800c30cc:	40a60533          	sub	a0,a2,a0
800c30d0:	40b705b3          	sub	a1,a4,a1
800c30d4:	00a63633          	sltu	a2,a2,a0
800c30d8:	40c587b3          	sub	a5,a1,a2
800c30dc:	00088413          	mv	s0,a7
800c30e0:	00068493          	mv	s1,a3
800c30e4:	f05ff06f          	j	800c2fe8 <__adddf3+0x424>
800c30e8:	03800813          	li	a6,56
800c30ec:	fab85ae3          	bge	a6,a1,800c30a0 <__adddf3+0x4dc>
800c30f0:	00000593          	li	a1,0
800c30f4:	00100513          	li	a0,1
800c30f8:	fd5ff06f          	j	800c30cc <__adddf3+0x508>
800c30fc:	fe058813          	addi	a6,a1,-32 # 7fffe0 <__stack_size+0x7ff7e0>
800c3100:	02000e13          	li	t3,32
800c3104:	0107d833          	srl	a6,a5,a6
800c3108:	00000313          	li	t1,0
800c310c:	01c58863          	beq	a1,t3,800c311c <__adddf3+0x558>
800c3110:	04000313          	li	t1,64
800c3114:	40b30333          	sub	t1,t1,a1
800c3118:	00679333          	sll	t1,a5,t1
800c311c:	00a36333          	or	t1,t1,a0
800c3120:	00603333          	snez	t1,t1
800c3124:	00686533          	or	a0,a6,t1
800c3128:	00000593          	li	a1,0
800c312c:	fa1ff06f          	j	800c30cc <__adddf3+0x508>
800c3130:	00140593          	addi	a1,s0,1
800c3134:	7fe5f593          	andi	a1,a1,2046
800c3138:	08059863          	bnez	a1,800c31c8 <__adddf3+0x604>
800c313c:	00a7e833          	or	a6,a5,a0
800c3140:	00c765b3          	or	a1,a4,a2
800c3144:	06041263          	bnez	s0,800c31a8 <__adddf3+0x5e4>
800c3148:	00081c63          	bnez	a6,800c3160 <__adddf3+0x59c>
800c314c:	10058e63          	beqz	a1,800c3268 <__adddf3+0x6a4>
800c3150:	00070793          	mv	a5,a4
800c3154:	00060513          	mv	a0,a2
800c3158:	00068493          	mv	s1,a3
800c315c:	b0dff06f          	j	800c2c68 <__adddf3+0xa4>
800c3160:	b00584e3          	beqz	a1,800c2c68 <__adddf3+0xa4>
800c3164:	40c508b3          	sub	a7,a0,a2
800c3168:	011535b3          	sltu	a1,a0,a7
800c316c:	40e78833          	sub	a6,a5,a4
800c3170:	40b80833          	sub	a6,a6,a1
800c3174:	008005b7          	lui	a1,0x800
800c3178:	00b875b3          	and	a1,a6,a1
800c317c:	00058c63          	beqz	a1,800c3194 <__adddf3+0x5d0>
800c3180:	40a60533          	sub	a0,a2,a0
800c3184:	40f70733          	sub	a4,a4,a5
800c3188:	00a63633          	sltu	a2,a2,a0
800c318c:	40c707b3          	sub	a5,a4,a2
800c3190:	fc9ff06f          	j	800c3158 <__adddf3+0x594>
800c3194:	0108e5b3          	or	a1,a7,a6
800c3198:	0c058863          	beqz	a1,800c3268 <__adddf3+0x6a4>
800c319c:	00080793          	mv	a5,a6
800c31a0:	00088513          	mv	a0,a7
800c31a4:	ac5ff06f          	j	800c2c68 <__adddf3+0xa4>
800c31a8:	00081c63          	bnez	a6,800c31c0 <__adddf3+0x5fc>
800c31ac:	1e058663          	beqz	a1,800c3398 <__adddf3+0x7d4>
800c31b0:	00070793          	mv	a5,a4
800c31b4:	00060513          	mv	a0,a2
800c31b8:	00068493          	mv	s1,a3
800c31bc:	b0dff06f          	j	800c2cc8 <__adddf3+0x104>
800c31c0:	b00584e3          	beqz	a1,800c2cc8 <__adddf3+0x104>
800c31c4:	d09ff06f          	j	800c2ecc <__adddf3+0x308>
800c31c8:	40c505b3          	sub	a1,a0,a2
800c31cc:	00b53833          	sltu	a6,a0,a1
800c31d0:	40e789b3          	sub	s3,a5,a4
800c31d4:	410989b3          	sub	s3,s3,a6
800c31d8:	00800837          	lui	a6,0x800
800c31dc:	0109f833          	and	a6,s3,a6
800c31e0:	00058913          	mv	s2,a1
800c31e4:	06080c63          	beqz	a6,800c325c <__adddf3+0x698>
800c31e8:	40a60933          	sub	s2,a2,a0
800c31ec:	40f70733          	sub	a4,a4,a5
800c31f0:	01263633          	sltu	a2,a2,s2
800c31f4:	40c709b3          	sub	s3,a4,a2
800c31f8:	00068493          	mv	s1,a3
800c31fc:	06098a63          	beqz	s3,800c3270 <__adddf3+0x6ac>
800c3200:	00098513          	mv	a0,s3
800c3204:	1a9010ef          	jal	ra,800c4bac <__clzsi2>
800c3208:	ff850793          	addi	a5,a0,-8
800c320c:	02000693          	li	a3,32
800c3210:	40f686b3          	sub	a3,a3,a5
800c3214:	00f99733          	sll	a4,s3,a5
800c3218:	00d956b3          	srl	a3,s2,a3
800c321c:	00e6e6b3          	or	a3,a3,a4
800c3220:	00f919b3          	sll	s3,s2,a5
800c3224:	1087c263          	blt	a5,s0,800c3328 <__adddf3+0x764>
800c3228:	408787b3          	sub	a5,a5,s0
800c322c:	00178793          	addi	a5,a5,1 # 80001 <__stack_size+0x7f801>
800c3230:	02000713          	li	a4,32
800c3234:	40f70733          	sub	a4,a4,a5
800c3238:	00e69533          	sll	a0,a3,a4
800c323c:	00f9d633          	srl	a2,s3,a5
800c3240:	00e99733          	sll	a4,s3,a4
800c3244:	00c56533          	or	a0,a0,a2
800c3248:	00e03733          	snez	a4,a4
800c324c:	00e56533          	or	a0,a0,a4
800c3250:	00f6d7b3          	srl	a5,a3,a5
800c3254:	00000413          	li	s0,0
800c3258:	a11ff06f          	j	800c2c68 <__adddf3+0xa4>
800c325c:	0135e5b3          	or	a1,a1,s3
800c3260:	f8059ee3          	bnez	a1,800c31fc <__adddf3+0x638>
800c3264:	00000413          	li	s0,0
800c3268:	00000793          	li	a5,0
800c326c:	1240006f          	j	800c3390 <__adddf3+0x7cc>
800c3270:	00090513          	mv	a0,s2
800c3274:	139010ef          	jal	ra,800c4bac <__clzsi2>
800c3278:	01850793          	addi	a5,a0,24
800c327c:	01f00713          	li	a4,31
800c3280:	f8f756e3          	bge	a4,a5,800c320c <__adddf3+0x648>
800c3284:	ff850513          	addi	a0,a0,-8
800c3288:	00a916b3          	sll	a3,s2,a0
800c328c:	0487c063          	blt	a5,s0,800c32cc <__adddf3+0x708>
800c3290:	40878533          	sub	a0,a5,s0
800c3294:	00150793          	addi	a5,a0,1
800c3298:	f8f75ce3          	bge	a4,a5,800c3230 <__adddf3+0x66c>
800c329c:	fe150513          	addi	a0,a0,-31
800c32a0:	02000613          	li	a2,32
800c32a4:	00a6d733          	srl	a4,a3,a0
800c32a8:	00000513          	li	a0,0
800c32ac:	00c78863          	beq	a5,a2,800c32bc <__adddf3+0x6f8>
800c32b0:	04000513          	li	a0,64
800c32b4:	40f50533          	sub	a0,a0,a5
800c32b8:	00a69533          	sll	a0,a3,a0
800c32bc:	00a03533          	snez	a0,a0
800c32c0:	00e56533          	or	a0,a0,a4
800c32c4:	00000793          	li	a5,0
800c32c8:	f8dff06f          	j	800c3254 <__adddf3+0x690>
800c32cc:	40f40433          	sub	s0,s0,a5
800c32d0:	ff8007b7          	lui	a5,0xff800
800c32d4:	fff78793          	addi	a5,a5,-1 # ff7fffff <__stack_top+0x7eafe7ff>
800c32d8:	00f6f7b3          	and	a5,a3,a5
800c32dc:	01d79593          	slli	a1,a5,0x1d
800c32e0:	0037d793          	srli	a5,a5,0x3
800c32e4:	01441413          	slli	s0,s0,0x14
800c32e8:	7ff00737          	lui	a4,0x7ff00
800c32ec:	00c79793          	slli	a5,a5,0xc
800c32f0:	00c7d793          	srli	a5,a5,0xc
800c32f4:	00e47433          	and	s0,s0,a4
800c32f8:	00f46433          	or	s0,s0,a5
800c32fc:	01f49493          	slli	s1,s1,0x1f
800c3300:	009467b3          	or	a5,s0,s1
800c3304:	01c12083          	lw	ra,28(sp)
800c3308:	01812403          	lw	s0,24(sp)
800c330c:	01412483          	lw	s1,20(sp)
800c3310:	01012903          	lw	s2,16(sp)
800c3314:	00c12983          	lw	s3,12(sp)
800c3318:	00058513          	mv	a0,a1
800c331c:	00078593          	mv	a1,a5
800c3320:	02010113          	addi	sp,sp,32
800c3324:	00008067          	ret
800c3328:	40f40433          	sub	s0,s0,a5
800c332c:	ff8007b7          	lui	a5,0xff800
800c3330:	fff78793          	addi	a5,a5,-1 # ff7fffff <__stack_top+0x7eafe7ff>
800c3334:	00f6f7b3          	and	a5,a3,a5
800c3338:	00098513          	mv	a0,s3
800c333c:	92dff06f          	j	800c2c68 <__adddf3+0xa4>
800c3340:	00070793          	mv	a5,a4
800c3344:	00060513          	mv	a0,a2
800c3348:	00058413          	mv	s0,a1
800c334c:	91dff06f          	j	800c2c68 <__adddf3+0xa4>
800c3350:	00070793          	mv	a5,a4
800c3354:	00060513          	mv	a0,a2
800c3358:	911ff06f          	j	800c2c68 <__adddf3+0xa4>
800c335c:	00070793          	mv	a5,a4
800c3360:	00060513          	mv	a0,a2
800c3364:	00080413          	mv	s0,a6
800c3368:	df1ff06f          	j	800c3158 <__adddf3+0x594>
800c336c:	01d79713          	slli	a4,a5,0x1d
800c3370:	00355513          	srli	a0,a0,0x3
800c3374:	7ff00693          	li	a3,2047
800c3378:	00a76733          	or	a4,a4,a0
800c337c:	0037d793          	srli	a5,a5,0x3
800c3380:	02d41463          	bne	s0,a3,800c33a8 <__adddf3+0x7e4>
800c3384:	00f76733          	or	a4,a4,a5
800c3388:	000807b7          	lui	a5,0x80
800c338c:	9a070ae3          	beqz	a4,800c2d40 <__adddf3+0x17c>
800c3390:	00000493          	li	s1,0
800c3394:	f51ff06f          	j	800c32e4 <__adddf3+0x720>
800c3398:	00000493          	li	s1,0
800c339c:	7ff00413          	li	s0,2047
800c33a0:	000807b7          	lui	a5,0x80
800c33a4:	f41ff06f          	j	800c32e4 <__adddf3+0x720>
800c33a8:	00070593          	mv	a1,a4
800c33ac:	f39ff06f          	j	800c32e4 <__adddf3+0x720>

800c33b0 <__divdf3>:
800c33b0:	fd010113          	addi	sp,sp,-48
800c33b4:	01712623          	sw	s7,12(sp)
800c33b8:	00060b93          	mv	s7,a2
800c33bc:	0145d613          	srli	a2,a1,0x14
800c33c0:	02812423          	sw	s0,40(sp)
800c33c4:	03212023          	sw	s2,32(sp)
800c33c8:	01312e23          	sw	s3,28(sp)
800c33cc:	01612823          	sw	s6,16(sp)
800c33d0:	00c59413          	slli	s0,a1,0xc
800c33d4:	02112623          	sw	ra,44(sp)
800c33d8:	02912223          	sw	s1,36(sp)
800c33dc:	01412c23          	sw	s4,24(sp)
800c33e0:	01512a23          	sw	s5,20(sp)
800c33e4:	7ff67613          	andi	a2,a2,2047
800c33e8:	00050b13          	mv	s6,a0
800c33ec:	00068913          	mv	s2,a3
800c33f0:	00c45413          	srli	s0,s0,0xc
800c33f4:	01f5d993          	srli	s3,a1,0x1f
800c33f8:	0a060063          	beqz	a2,800c3498 <__divdf3+0xe8>
800c33fc:	7ff00793          	li	a5,2047
800c3400:	10f60063          	beq	a2,a5,800c3500 <__divdf3+0x150>
800c3404:	01d55693          	srli	a3,a0,0x1d
800c3408:	00341413          	slli	s0,s0,0x3
800c340c:	0086e6b3          	or	a3,a3,s0
800c3410:	008007b7          	lui	a5,0x800
800c3414:	00f6ea33          	or	s4,a3,a5
800c3418:	00351493          	slli	s1,a0,0x3
800c341c:	c0160a93          	addi	s5,a2,-1023
800c3420:	00000b13          	li	s6,0
800c3424:	01495793          	srli	a5,s2,0x14
800c3428:	00c91413          	slli	s0,s2,0xc
800c342c:	7ff7f793          	andi	a5,a5,2047
800c3430:	00c45413          	srli	s0,s0,0xc
800c3434:	01f95913          	srli	s2,s2,0x1f
800c3438:	10078263          	beqz	a5,800c353c <__divdf3+0x18c>
800c343c:	7ff00713          	li	a4,2047
800c3440:	16e78663          	beq	a5,a4,800c35ac <__divdf3+0x1fc>
800c3444:	00341413          	slli	s0,s0,0x3
800c3448:	01dbd713          	srli	a4,s7,0x1d
800c344c:	00876733          	or	a4,a4,s0
800c3450:	00800437          	lui	s0,0x800
800c3454:	00876433          	or	s0,a4,s0
800c3458:	003b9f13          	slli	t5,s7,0x3
800c345c:	c0178693          	addi	a3,a5,-1023 # 7ffc01 <__stack_size+0x7ff401>
800c3460:	00000593          	li	a1,0
800c3464:	002b1793          	slli	a5,s6,0x2
800c3468:	00b7e7b3          	or	a5,a5,a1
800c346c:	40da8633          	sub	a2,s5,a3
800c3470:	fff78793          	addi	a5,a5,-1
800c3474:	00e00693          	li	a3,14
800c3478:	0129c733          	xor	a4,s3,s2
800c347c:	18f6ec63          	bltu	a3,a5,800c3614 <__divdf3+0x264>
800c3480:	800d16b7          	lui	a3,0x800d1
800c3484:	00279793          	slli	a5,a5,0x2
800c3488:	20468693          	addi	a3,a3,516 # 800d1204 <__stack_top+0xff3cfa04>
800c348c:	00d787b3          	add	a5,a5,a3
800c3490:	0007a783          	lw	a5,0(a5)
800c3494:	00078067          	jr	a5
800c3498:	00a46a33          	or	s4,s0,a0
800c349c:	080a0063          	beqz	s4,800c351c <__divdf3+0x16c>
800c34a0:	02040e63          	beqz	s0,800c34dc <__divdf3+0x12c>
800c34a4:	00040513          	mv	a0,s0
800c34a8:	704010ef          	jal	ra,800c4bac <__clzsi2>
800c34ac:	ff550793          	addi	a5,a0,-11
800c34b0:	01d00693          	li	a3,29
800c34b4:	ff850713          	addi	a4,a0,-8
800c34b8:	40f686b3          	sub	a3,a3,a5
800c34bc:	00e41433          	sll	s0,s0,a4
800c34c0:	00db56b3          	srl	a3,s6,a3
800c34c4:	0086ea33          	or	s4,a3,s0
800c34c8:	00eb1433          	sll	s0,s6,a4
800c34cc:	c0d00613          	li	a2,-1011
800c34d0:	40a60ab3          	sub	s5,a2,a0
800c34d4:	00040493          	mv	s1,s0
800c34d8:	f49ff06f          	j	800c3420 <__divdf3+0x70>
800c34dc:	6d0010ef          	jal	ra,800c4bac <__clzsi2>
800c34e0:	00050a13          	mv	s4,a0
800c34e4:	015a0793          	addi	a5,s4,21
800c34e8:	01c00713          	li	a4,28
800c34ec:	02050513          	addi	a0,a0,32
800c34f0:	fcf750e3          	bge	a4,a5,800c34b0 <__divdf3+0x100>
800c34f4:	ff8a0a13          	addi	s4,s4,-8
800c34f8:	014b1a33          	sll	s4,s6,s4
800c34fc:	fd1ff06f          	j	800c34cc <__divdf3+0x11c>
800c3500:	00a46a33          	or	s4,s0,a0
800c3504:	020a0463          	beqz	s4,800c352c <__divdf3+0x17c>
800c3508:	00050493          	mv	s1,a0
800c350c:	00040a13          	mv	s4,s0
800c3510:	7ff00a93          	li	s5,2047
800c3514:	00300b13          	li	s6,3
800c3518:	f0dff06f          	j	800c3424 <__divdf3+0x74>
800c351c:	00000493          	li	s1,0
800c3520:	00000a93          	li	s5,0
800c3524:	00100b13          	li	s6,1
800c3528:	efdff06f          	j	800c3424 <__divdf3+0x74>
800c352c:	00000493          	li	s1,0
800c3530:	7ff00a93          	li	s5,2047
800c3534:	00200b13          	li	s6,2
800c3538:	eedff06f          	j	800c3424 <__divdf3+0x74>
800c353c:	01746f33          	or	t5,s0,s7
800c3540:	080f0263          	beqz	t5,800c35c4 <__divdf3+0x214>
800c3544:	04040063          	beqz	s0,800c3584 <__divdf3+0x1d4>
800c3548:	00040513          	mv	a0,s0
800c354c:	660010ef          	jal	ra,800c4bac <__clzsi2>
800c3550:	ff550713          	addi	a4,a0,-11
800c3554:	01d00793          	li	a5,29
800c3558:	ff850693          	addi	a3,a0,-8
800c355c:	40e787b3          	sub	a5,a5,a4
800c3560:	00d41433          	sll	s0,s0,a3
800c3564:	00fbd7b3          	srl	a5,s7,a5
800c3568:	0087e7b3          	or	a5,a5,s0
800c356c:	00db9433          	sll	s0,s7,a3
800c3570:	c0d00693          	li	a3,-1011
800c3574:	00040f13          	mv	t5,s0
800c3578:	40a686b3          	sub	a3,a3,a0
800c357c:	00078413          	mv	s0,a5
800c3580:	ee1ff06f          	j	800c3460 <__divdf3+0xb0>
800c3584:	000b8513          	mv	a0,s7
800c3588:	624010ef          	jal	ra,800c4bac <__clzsi2>
800c358c:	00050793          	mv	a5,a0
800c3590:	01578713          	addi	a4,a5,21
800c3594:	01c00693          	li	a3,28
800c3598:	02050513          	addi	a0,a0,32
800c359c:	fae6dce3          	bge	a3,a4,800c3554 <__divdf3+0x1a4>
800c35a0:	ff878793          	addi	a5,a5,-8
800c35a4:	00fb97b3          	sll	a5,s7,a5
800c35a8:	fc9ff06f          	j	800c3570 <__divdf3+0x1c0>
800c35ac:	01746f33          	or	t5,s0,s7
800c35b0:	020f0263          	beqz	t5,800c35d4 <__divdf3+0x224>
800c35b4:	000b8f13          	mv	t5,s7
800c35b8:	7ff00693          	li	a3,2047
800c35bc:	00300593          	li	a1,3
800c35c0:	ea5ff06f          	j	800c3464 <__divdf3+0xb4>
800c35c4:	00000413          	li	s0,0
800c35c8:	00000693          	li	a3,0
800c35cc:	00100593          	li	a1,1
800c35d0:	e95ff06f          	j	800c3464 <__divdf3+0xb4>
800c35d4:	00000413          	li	s0,0
800c35d8:	7ff00693          	li	a3,2047
800c35dc:	00200593          	li	a1,2
800c35e0:	e85ff06f          	j	800c3464 <__divdf3+0xb4>
800c35e4:	00098713          	mv	a4,s3
800c35e8:	000a0413          	mv	s0,s4
800c35ec:	00048f13          	mv	t5,s1
800c35f0:	00200793          	li	a5,2
800c35f4:	46fb0263          	beq	s6,a5,800c3a58 <__divdf3+0x6a8>
800c35f8:	00300793          	li	a5,3
800c35fc:	44fb0463          	beq	s6,a5,800c3a44 <__divdf3+0x694>
800c3600:	00100793          	li	a5,1
800c3604:	2cfb1263          	bne	s6,a5,800c38c8 <__divdf3+0x518>
800c3608:	00000413          	li	s0,0
800c360c:	00000693          	li	a3,0
800c3610:	3f80006f          	j	800c3a08 <__divdf3+0x658>
800c3614:	01446663          	bltu	s0,s4,800c3620 <__divdf3+0x270>
800c3618:	348a1e63          	bne	s4,s0,800c3974 <__divdf3+0x5c4>
800c361c:	35e4ec63          	bltu	s1,t5,800c3974 <__divdf3+0x5c4>
800c3620:	01fa1693          	slli	a3,s4,0x1f
800c3624:	0014d793          	srli	a5,s1,0x1
800c3628:	01f49313          	slli	t1,s1,0x1f
800c362c:	001a5a13          	srli	s4,s4,0x1
800c3630:	00f6e4b3          	or	s1,a3,a5
800c3634:	00841413          	slli	s0,s0,0x8
800c3638:	01045893          	srli	a7,s0,0x10
800c363c:	031a5eb3          	divu	t4,s4,a7
800c3640:	018f5593          	srli	a1,t5,0x18
800c3644:	0085e5b3          	or	a1,a1,s0
800c3648:	01059813          	slli	a6,a1,0x10
800c364c:	01085813          	srli	a6,a6,0x10
800c3650:	0104d793          	srli	a5,s1,0x10
800c3654:	008f1513          	slli	a0,t5,0x8
800c3658:	031a76b3          	remu	a3,s4,a7
800c365c:	03d80e33          	mul	t3,a6,t4
800c3660:	01069693          	slli	a3,a3,0x10
800c3664:	00d7e7b3          	or	a5,a5,a3
800c3668:	000e8693          	mv	a3,t4
800c366c:	01c7fe63          	bgeu	a5,t3,800c3688 <__divdf3+0x2d8>
800c3670:	00f587b3          	add	a5,a1,a5
800c3674:	fffe8693          	addi	a3,t4,-1
800c3678:	00b7e863          	bltu	a5,a1,800c3688 <__divdf3+0x2d8>
800c367c:	01c7f663          	bgeu	a5,t3,800c3688 <__divdf3+0x2d8>
800c3680:	ffee8693          	addi	a3,t4,-2
800c3684:	00b787b3          	add	a5,a5,a1
800c3688:	41c787b3          	sub	a5,a5,t3
800c368c:	0317deb3          	divu	t4,a5,a7
800c3690:	01049493          	slli	s1,s1,0x10
800c3694:	0104d493          	srli	s1,s1,0x10
800c3698:	0317f7b3          	remu	a5,a5,a7
800c369c:	03d80e33          	mul	t3,a6,t4
800c36a0:	01079793          	slli	a5,a5,0x10
800c36a4:	00f4e4b3          	or	s1,s1,a5
800c36a8:	000e8793          	mv	a5,t4
800c36ac:	01c4fe63          	bgeu	s1,t3,800c36c8 <__divdf3+0x318>
800c36b0:	009584b3          	add	s1,a1,s1
800c36b4:	fffe8793          	addi	a5,t4,-1
800c36b8:	00b4e863          	bltu	s1,a1,800c36c8 <__divdf3+0x318>
800c36bc:	01c4f663          	bgeu	s1,t3,800c36c8 <__divdf3+0x318>
800c36c0:	ffee8793          	addi	a5,t4,-2
800c36c4:	00b484b3          	add	s1,s1,a1
800c36c8:	01069693          	slli	a3,a3,0x10
800c36cc:	000103b7          	lui	t2,0x10
800c36d0:	00f6efb3          	or	t6,a3,a5
800c36d4:	41c484b3          	sub	s1,s1,t3
800c36d8:	fff38e13          	addi	t3,t2,-1 # ffff <__stack_size+0xf7ff>
800c36dc:	01cff7b3          	and	a5,t6,t3
800c36e0:	010fdf13          	srli	t5,t6,0x10
800c36e4:	01055e93          	srli	t4,a0,0x10
800c36e8:	01c57e33          	and	t3,a0,t3
800c36ec:	02fe02b3          	mul	t0,t3,a5
800c36f0:	03cf0433          	mul	s0,t5,t3
800c36f4:	0102d693          	srli	a3,t0,0x10
800c36f8:	02fe87b3          	mul	a5,t4,a5
800c36fc:	008787b3          	add	a5,a5,s0
800c3700:	00f686b3          	add	a3,a3,a5
800c3704:	03df0f33          	mul	t5,t5,t4
800c3708:	0086f463          	bgeu	a3,s0,800c3710 <__divdf3+0x360>
800c370c:	007f0f33          	add	t5,t5,t2
800c3710:	0106d793          	srli	a5,a3,0x10
800c3714:	01e787b3          	add	a5,a5,t5
800c3718:	00010f37          	lui	t5,0x10
800c371c:	ffff0f13          	addi	t5,t5,-1 # ffff <__stack_size+0xf7ff>
800c3720:	01e6f6b3          	and	a3,a3,t5
800c3724:	01069693          	slli	a3,a3,0x10
800c3728:	01e2f2b3          	and	t0,t0,t5
800c372c:	005686b3          	add	a3,a3,t0
800c3730:	00f4e863          	bltu	s1,a5,800c3740 <__divdf3+0x390>
800c3734:	000f8413          	mv	s0,t6
800c3738:	04f49863          	bne	s1,a5,800c3788 <__divdf3+0x3d8>
800c373c:	04d37663          	bgeu	t1,a3,800c3788 <__divdf3+0x3d8>
800c3740:	00a30f33          	add	t5,t1,a0
800c3744:	006f32b3          	sltu	t0,t5,t1
800c3748:	00b283b3          	add	t2,t0,a1
800c374c:	007484b3          	add	s1,s1,t2
800c3750:	ffff8413          	addi	s0,t6,-1
800c3754:	000f0313          	mv	t1,t5
800c3758:	0095e663          	bltu	a1,s1,800c3764 <__divdf3+0x3b4>
800c375c:	02959663          	bne	a1,s1,800c3788 <__divdf3+0x3d8>
800c3760:	02029463          	bnez	t0,800c3788 <__divdf3+0x3d8>
800c3764:	00f4e663          	bltu	s1,a5,800c3770 <__divdf3+0x3c0>
800c3768:	02979063          	bne	a5,s1,800c3788 <__divdf3+0x3d8>
800c376c:	00df7e63          	bgeu	t5,a3,800c3788 <__divdf3+0x3d8>
800c3770:	01e50f33          	add	t5,a0,t5
800c3774:	000f0313          	mv	t1,t5
800c3778:	00af3f33          	sltu	t5,t5,a0
800c377c:	00bf0f33          	add	t5,t5,a1
800c3780:	ffef8413          	addi	s0,t6,-2
800c3784:	01e484b3          	add	s1,s1,t5
800c3788:	40d306b3          	sub	a3,t1,a3
800c378c:	40f484b3          	sub	s1,s1,a5
800c3790:	00d33333          	sltu	t1,t1,a3
800c3794:	406484b3          	sub	s1,s1,t1
800c3798:	fff00f13          	li	t5,-1
800c379c:	12958663          	beq	a1,s1,800c38c8 <__divdf3+0x518>
800c37a0:	0314dfb3          	divu	t6,s1,a7
800c37a4:	0106d793          	srli	a5,a3,0x10
800c37a8:	0314f4b3          	remu	s1,s1,a7
800c37ac:	000f8313          	mv	t1,t6
800c37b0:	03f80f33          	mul	t5,a6,t6
800c37b4:	01049493          	slli	s1,s1,0x10
800c37b8:	0097e7b3          	or	a5,a5,s1
800c37bc:	01e7fe63          	bgeu	a5,t5,800c37d8 <__divdf3+0x428>
800c37c0:	00f587b3          	add	a5,a1,a5
800c37c4:	ffff8313          	addi	t1,t6,-1
800c37c8:	00b7e863          	bltu	a5,a1,800c37d8 <__divdf3+0x428>
800c37cc:	01e7f663          	bgeu	a5,t5,800c37d8 <__divdf3+0x428>
800c37d0:	ffef8313          	addi	t1,t6,-2
800c37d4:	00b787b3          	add	a5,a5,a1
800c37d8:	41e787b3          	sub	a5,a5,t5
800c37dc:	0317df33          	divu	t5,a5,a7
800c37e0:	01069693          	slli	a3,a3,0x10
800c37e4:	0106d693          	srli	a3,a3,0x10
800c37e8:	0317f7b3          	remu	a5,a5,a7
800c37ec:	03e80833          	mul	a6,a6,t5
800c37f0:	01079793          	slli	a5,a5,0x10
800c37f4:	00f6e7b3          	or	a5,a3,a5
800c37f8:	000f0693          	mv	a3,t5
800c37fc:	0107fe63          	bgeu	a5,a6,800c3818 <__divdf3+0x468>
800c3800:	00f587b3          	add	a5,a1,a5
800c3804:	ffff0693          	addi	a3,t5,-1
800c3808:	00b7e863          	bltu	a5,a1,800c3818 <__divdf3+0x468>
800c380c:	0107f663          	bgeu	a5,a6,800c3818 <__divdf3+0x468>
800c3810:	ffef0693          	addi	a3,t5,-2
800c3814:	00b787b3          	add	a5,a5,a1
800c3818:	01031313          	slli	t1,t1,0x10
800c381c:	00d36333          	or	t1,t1,a3
800c3820:	01031693          	slli	a3,t1,0x10
800c3824:	0106d693          	srli	a3,a3,0x10
800c3828:	01035893          	srli	a7,t1,0x10
800c382c:	03c68f33          	mul	t5,a3,t3
800c3830:	410787b3          	sub	a5,a5,a6
800c3834:	03c88e33          	mul	t3,a7,t3
800c3838:	031e88b3          	mul	a7,t4,a7
800c383c:	02de8eb3          	mul	t4,t4,a3
800c3840:	010f5693          	srli	a3,t5,0x10
800c3844:	01ce8eb3          	add	t4,t4,t3
800c3848:	01d686b3          	add	a3,a3,t4
800c384c:	01c6f663          	bgeu	a3,t3,800c3858 <__divdf3+0x4a8>
800c3850:	00010837          	lui	a6,0x10
800c3854:	010888b3          	add	a7,a7,a6
800c3858:	0106d813          	srli	a6,a3,0x10
800c385c:	01180833          	add	a6,a6,a7
800c3860:	000108b7          	lui	a7,0x10
800c3864:	fff88893          	addi	a7,a7,-1 # ffff <__stack_size+0xf7ff>
800c3868:	0116f6b3          	and	a3,a3,a7
800c386c:	01069693          	slli	a3,a3,0x10
800c3870:	011f7f33          	and	t5,t5,a7
800c3874:	01e686b3          	add	a3,a3,t5
800c3878:	0107e863          	bltu	a5,a6,800c3888 <__divdf3+0x4d8>
800c387c:	00030f13          	mv	t5,t1
800c3880:	05079263          	bne	a5,a6,800c38c4 <__divdf3+0x514>
800c3884:	04068263          	beqz	a3,800c38c8 <__divdf3+0x518>
800c3888:	00f587b3          	add	a5,a1,a5
800c388c:	fff30f13          	addi	t5,t1,-1
800c3890:	00078893          	mv	a7,a5
800c3894:	02b7e463          	bltu	a5,a1,800c38bc <__divdf3+0x50c>
800c3898:	0107e663          	bltu	a5,a6,800c38a4 <__divdf3+0x4f4>
800c389c:	03079463          	bne	a5,a6,800c38c4 <__divdf3+0x514>
800c38a0:	02d57063          	bgeu	a0,a3,800c38c0 <__divdf3+0x510>
800c38a4:	ffe30f13          	addi	t5,t1,-2
800c38a8:	00151313          	slli	t1,a0,0x1
800c38ac:	00a338b3          	sltu	a7,t1,a0
800c38b0:	00b888b3          	add	a7,a7,a1
800c38b4:	011788b3          	add	a7,a5,a7
800c38b8:	00030513          	mv	a0,t1
800c38bc:	01089463          	bne	a7,a6,800c38c4 <__divdf3+0x514>
800c38c0:	00a68463          	beq	a3,a0,800c38c8 <__divdf3+0x518>
800c38c4:	001f6f13          	ori	t5,t5,1
800c38c8:	3ff60793          	addi	a5,a2,1023
800c38cc:	0cf05063          	blez	a5,800c398c <__divdf3+0x5dc>
800c38d0:	007f7693          	andi	a3,t5,7
800c38d4:	02068063          	beqz	a3,800c38f4 <__divdf3+0x544>
800c38d8:	00ff7693          	andi	a3,t5,15
800c38dc:	00400593          	li	a1,4
800c38e0:	00b68a63          	beq	a3,a1,800c38f4 <__divdf3+0x544>
800c38e4:	004f0693          	addi	a3,t5,4
800c38e8:	01e6b5b3          	sltu	a1,a3,t5
800c38ec:	00b40433          	add	s0,s0,a1
800c38f0:	00068f13          	mv	t5,a3
800c38f4:	010006b7          	lui	a3,0x1000
800c38f8:	00d476b3          	and	a3,s0,a3
800c38fc:	00068a63          	beqz	a3,800c3910 <__divdf3+0x560>
800c3900:	ff0007b7          	lui	a5,0xff000
800c3904:	fff78793          	addi	a5,a5,-1 # feffffff <__stack_top+0x7e2fe7ff>
800c3908:	00f47433          	and	s0,s0,a5
800c390c:	40060793          	addi	a5,a2,1024
800c3910:	7fe00693          	li	a3,2046
800c3914:	14f6c263          	blt	a3,a5,800c3a58 <__divdf3+0x6a8>
800c3918:	01d41693          	slli	a3,s0,0x1d
800c391c:	003f5f13          	srli	t5,t5,0x3
800c3920:	01e6e6b3          	or	a3,a3,t5
800c3924:	00345413          	srli	s0,s0,0x3
800c3928:	00c41413          	slli	s0,s0,0xc
800c392c:	00c45413          	srli	s0,s0,0xc
800c3930:	01479793          	slli	a5,a5,0x14
800c3934:	02c12083          	lw	ra,44(sp)
800c3938:	0087e7b3          	or	a5,a5,s0
800c393c:	02812403          	lw	s0,40(sp)
800c3940:	01f71713          	slli	a4,a4,0x1f
800c3944:	00e7e633          	or	a2,a5,a4
800c3948:	02412483          	lw	s1,36(sp)
800c394c:	02012903          	lw	s2,32(sp)
800c3950:	01c12983          	lw	s3,28(sp)
800c3954:	01812a03          	lw	s4,24(sp)
800c3958:	01412a83          	lw	s5,20(sp)
800c395c:	01012b03          	lw	s6,16(sp)
800c3960:	00c12b83          	lw	s7,12(sp)
800c3964:	00068513          	mv	a0,a3
800c3968:	00060593          	mv	a1,a2
800c396c:	03010113          	addi	sp,sp,48
800c3970:	00008067          	ret
800c3974:	fff60613          	addi	a2,a2,-1
800c3978:	00000313          	li	t1,0
800c397c:	cb9ff06f          	j	800c3634 <__divdf3+0x284>
800c3980:	00090713          	mv	a4,s2
800c3984:	00058b13          	mv	s6,a1
800c3988:	c69ff06f          	j	800c35f0 <__divdf3+0x240>
800c398c:	00100593          	li	a1,1
800c3990:	00078c63          	beqz	a5,800c39a8 <__divdf3+0x5f8>
800c3994:	40f585b3          	sub	a1,a1,a5
800c3998:	03800693          	li	a3,56
800c399c:	c6b6c6e3          	blt	a3,a1,800c3608 <__divdf3+0x258>
800c39a0:	01f00693          	li	a3,31
800c39a4:	06b6c663          	blt	a3,a1,800c3a10 <__divdf3+0x660>
800c39a8:	41e60613          	addi	a2,a2,1054
800c39ac:	00bf57b3          	srl	a5,t5,a1
800c39b0:	00cf1f33          	sll	t5,t5,a2
800c39b4:	01e03f33          	snez	t5,t5
800c39b8:	00c41633          	sll	a2,s0,a2
800c39bc:	00cf6f33          	or	t5,t5,a2
800c39c0:	01e7e7b3          	or	a5,a5,t5
800c39c4:	00b45433          	srl	s0,s0,a1
800c39c8:	0077f693          	andi	a3,a5,7
800c39cc:	02068063          	beqz	a3,800c39ec <__divdf3+0x63c>
800c39d0:	00f7f693          	andi	a3,a5,15
800c39d4:	00400613          	li	a2,4
800c39d8:	00c68a63          	beq	a3,a2,800c39ec <__divdf3+0x63c>
800c39dc:	00478693          	addi	a3,a5,4
800c39e0:	00f6b633          	sltu	a2,a3,a5
800c39e4:	00c40433          	add	s0,s0,a2
800c39e8:	00068793          	mv	a5,a3
800c39ec:	008006b7          	lui	a3,0x800
800c39f0:	00d476b3          	and	a3,s0,a3
800c39f4:	06069a63          	bnez	a3,800c3a68 <__divdf3+0x6b8>
800c39f8:	01d41693          	slli	a3,s0,0x1d
800c39fc:	0037d793          	srli	a5,a5,0x3
800c3a00:	00f6e6b3          	or	a3,a3,a5
800c3a04:	00345413          	srli	s0,s0,0x3
800c3a08:	00000793          	li	a5,0
800c3a0c:	f1dff06f          	j	800c3928 <__divdf3+0x578>
800c3a10:	fe100693          	li	a3,-31
800c3a14:	40f687b3          	sub	a5,a3,a5
800c3a18:	02000513          	li	a0,32
800c3a1c:	00f457b3          	srl	a5,s0,a5
800c3a20:	00000693          	li	a3,0
800c3a24:	00a58663          	beq	a1,a0,800c3a30 <__divdf3+0x680>
800c3a28:	43e60613          	addi	a2,a2,1086
800c3a2c:	00c416b3          	sll	a3,s0,a2
800c3a30:	01e6e6b3          	or	a3,a3,t5
800c3a34:	00d036b3          	snez	a3,a3
800c3a38:	00d7e7b3          	or	a5,a5,a3
800c3a3c:	00000413          	li	s0,0
800c3a40:	f89ff06f          	j	800c39c8 <__divdf3+0x618>
800c3a44:	00080437          	lui	s0,0x80
800c3a48:	00000693          	li	a3,0
800c3a4c:	7ff00793          	li	a5,2047
800c3a50:	00000713          	li	a4,0
800c3a54:	ed5ff06f          	j	800c3928 <__divdf3+0x578>
800c3a58:	00000413          	li	s0,0
800c3a5c:	00000693          	li	a3,0
800c3a60:	7ff00793          	li	a5,2047
800c3a64:	ec5ff06f          	j	800c3928 <__divdf3+0x578>
800c3a68:	00000413          	li	s0,0
800c3a6c:	00000693          	li	a3,0
800c3a70:	00100793          	li	a5,1
800c3a74:	eb5ff06f          	j	800c3928 <__divdf3+0x578>

800c3a78 <__ledf2>:
800c3a78:	0146d793          	srli	a5,a3,0x14
800c3a7c:	0145d313          	srli	t1,a1,0x14
800c3a80:	00100737          	lui	a4,0x100
800c3a84:	fff70713          	addi	a4,a4,-1 # fffff <__stack_size+0xff7ff>
800c3a88:	00050813          	mv	a6,a0
800c3a8c:	00050e13          	mv	t3,a0
800c3a90:	7ff37313          	andi	t1,t1,2047
800c3a94:	7ff7f513          	andi	a0,a5,2047
800c3a98:	7ff00793          	li	a5,2047
800c3a9c:	00b778b3          	and	a7,a4,a1
800c3aa0:	00060e93          	mv	t4,a2
800c3aa4:	00d77733          	and	a4,a4,a3
800c3aa8:	01f5d593          	srli	a1,a1,0x1f
800c3aac:	01f6d693          	srli	a3,a3,0x1f
800c3ab0:	02f31c63          	bne	t1,a5,800c3ae8 <__ledf2+0x70>
800c3ab4:	0108e8b3          	or	a7,a7,a6
800c3ab8:	0c089463          	bnez	a7,800c3b80 <__ledf2+0x108>
800c3abc:	00650a63          	beq	a0,t1,800c3ad0 <__ledf2+0x58>
800c3ac0:	00100513          	li	a0,1
800c3ac4:	0a058c63          	beqz	a1,800c3b7c <__ledf2+0x104>
800c3ac8:	fff00513          	li	a0,-1
800c3acc:	00008067          	ret
800c3ad0:	00c76733          	or	a4,a4,a2
800c3ad4:	00200513          	li	a0,2
800c3ad8:	0a071263          	bnez	a4,800c3b7c <__ledf2+0x104>
800c3adc:	fed592e3          	bne	a1,a3,800c3ac0 <__ledf2+0x48>
800c3ae0:	00000513          	li	a0,0
800c3ae4:	00008067          	ret
800c3ae8:	04f51063          	bne	a0,a5,800c3b28 <__ledf2+0xb0>
800c3aec:	00c76733          	or	a4,a4,a2
800c3af0:	00200513          	li	a0,2
800c3af4:	08071463          	bnez	a4,800c3b7c <__ledf2+0x104>
800c3af8:	00030c63          	beqz	t1,800c3b10 <__ledf2+0x98>
800c3afc:	fcd592e3          	bne	a1,a3,800c3ac0 <__ledf2+0x48>
800c3b00:	fff00513          	li	a0,-1
800c3b04:	06058c63          	beqz	a1,800c3b7c <__ledf2+0x104>
800c3b08:	00058513          	mv	a0,a1
800c3b0c:	00008067          	ret
800c3b10:	0108e8b3          	or	a7,a7,a6
800c3b14:	fe0894e3          	bnez	a7,800c3afc <__ledf2+0x84>
800c3b18:	fff00513          	li	a0,-1
800c3b1c:	06068063          	beqz	a3,800c3b7c <__ledf2+0x104>
800c3b20:	00068513          	mv	a0,a3
800c3b24:	00008067          	ret
800c3b28:	02030663          	beqz	t1,800c3b54 <__ledf2+0xdc>
800c3b2c:	f8050ae3          	beqz	a0,800c3ac0 <__ledf2+0x48>
800c3b30:	f8d598e3          	bne	a1,a3,800c3ac0 <__ledf2+0x48>
800c3b34:	f86546e3          	blt	a0,t1,800c3ac0 <__ledf2+0x48>
800c3b38:	fca344e3          	blt	t1,a0,800c3b00 <__ledf2+0x88>
800c3b3c:	f91762e3          	bltu	a4,a7,800c3ac0 <__ledf2+0x48>
800c3b40:	fce890e3          	bne	a7,a4,800c3b00 <__ledf2+0x88>
800c3b44:	f7ceeee3          	bltu	t4,t3,800c3ac0 <__ledf2+0x48>
800c3b48:	00000513          	li	a0,0
800c3b4c:	03de7863          	bgeu	t3,t4,800c3b7c <__ledf2+0x104>
800c3b50:	fb1ff06f          	j	800c3b00 <__ledf2+0x88>
800c3b54:	0108e833          	or	a6,a7,a6
800c3b58:	00050663          	beqz	a0,800c3b64 <__ledf2+0xec>
800c3b5c:	fa080ee3          	beqz	a6,800c3b18 <__ledf2+0xa0>
800c3b60:	f9dff06f          	j	800c3afc <__ledf2+0x84>
800c3b64:	00c76633          	or	a2,a4,a2
800c3b68:	00060863          	beqz	a2,800c3b78 <__ledf2+0x100>
800c3b6c:	fa0806e3          	beqz	a6,800c3b18 <__ledf2+0xa0>
800c3b70:	fcd586e3          	beq	a1,a3,800c3b3c <__ledf2+0xc4>
800c3b74:	f4dff06f          	j	800c3ac0 <__ledf2+0x48>
800c3b78:	f40814e3          	bnez	a6,800c3ac0 <__ledf2+0x48>
800c3b7c:	00008067          	ret
800c3b80:	00200513          	li	a0,2
800c3b84:	00008067          	ret

800c3b88 <__muldf3>:
800c3b88:	fd010113          	addi	sp,sp,-48
800c3b8c:	01512a23          	sw	s5,20(sp)
800c3b90:	0145da93          	srli	s5,a1,0x14
800c3b94:	02812423          	sw	s0,40(sp)
800c3b98:	02912223          	sw	s1,36(sp)
800c3b9c:	01312e23          	sw	s3,28(sp)
800c3ba0:	01412c23          	sw	s4,24(sp)
800c3ba4:	01612823          	sw	s6,16(sp)
800c3ba8:	00c59493          	slli	s1,a1,0xc
800c3bac:	02112623          	sw	ra,44(sp)
800c3bb0:	03212023          	sw	s2,32(sp)
800c3bb4:	01712623          	sw	s7,12(sp)
800c3bb8:	7ffafa93          	andi	s5,s5,2047
800c3bbc:	00050413          	mv	s0,a0
800c3bc0:	00060b13          	mv	s6,a2
800c3bc4:	00068993          	mv	s3,a3
800c3bc8:	00c4d493          	srli	s1,s1,0xc
800c3bcc:	01f5da13          	srli	s4,a1,0x1f
800c3bd0:	300a8063          	beqz	s5,800c3ed0 <__muldf3+0x348>
800c3bd4:	7ff00793          	li	a5,2047
800c3bd8:	36fa8263          	beq	s5,a5,800c3f3c <__muldf3+0x3b4>
800c3bdc:	00349493          	slli	s1,s1,0x3
800c3be0:	01d55793          	srli	a5,a0,0x1d
800c3be4:	0097e7b3          	or	a5,a5,s1
800c3be8:	008004b7          	lui	s1,0x800
800c3bec:	0097e4b3          	or	s1,a5,s1
800c3bf0:	00351913          	slli	s2,a0,0x3
800c3bf4:	c01a8a93          	addi	s5,s5,-1023
800c3bf8:	00000b93          	li	s7,0
800c3bfc:	0149d713          	srli	a4,s3,0x14
800c3c00:	00c99413          	slli	s0,s3,0xc
800c3c04:	7ff77713          	andi	a4,a4,2047
800c3c08:	00c45413          	srli	s0,s0,0xc
800c3c0c:	01f9d993          	srli	s3,s3,0x1f
800c3c10:	36070263          	beqz	a4,800c3f74 <__muldf3+0x3ec>
800c3c14:	7ff00793          	li	a5,2047
800c3c18:	3cf70663          	beq	a4,a5,800c3fe4 <__muldf3+0x45c>
800c3c1c:	00341413          	slli	s0,s0,0x3
800c3c20:	01db5793          	srli	a5,s6,0x1d
800c3c24:	0087e7b3          	or	a5,a5,s0
800c3c28:	00800437          	lui	s0,0x800
800c3c2c:	0087e433          	or	s0,a5,s0
800c3c30:	c0170693          	addi	a3,a4,-1023
800c3c34:	003b1793          	slli	a5,s6,0x3
800c3c38:	00000513          	li	a0,0
800c3c3c:	002b9713          	slli	a4,s7,0x2
800c3c40:	00da8ab3          	add	s5,s5,a3
800c3c44:	00a76733          	or	a4,a4,a0
800c3c48:	00a00693          	li	a3,10
800c3c4c:	013a4633          	xor	a2,s4,s3
800c3c50:	001a8593          	addi	a1,s5,1
800c3c54:	40e6c863          	blt	a3,a4,800c4064 <__muldf3+0x4dc>
800c3c58:	00200693          	li	a3,2
800c3c5c:	3ce6c063          	blt	a3,a4,800c401c <__muldf3+0x494>
800c3c60:	fff70713          	addi	a4,a4,-1
800c3c64:	00100693          	li	a3,1
800c3c68:	3ce6fc63          	bgeu	a3,a4,800c4040 <__muldf3+0x4b8>
800c3c6c:	00010837          	lui	a6,0x10
800c3c70:	fff80e93          	addi	t4,a6,-1 # ffff <__stack_size+0xf7ff>
800c3c74:	01095693          	srli	a3,s2,0x10
800c3c78:	0107d893          	srli	a7,a5,0x10
800c3c7c:	01d97933          	and	s2,s2,t4
800c3c80:	01d7ff33          	and	t5,a5,t4
800c3c84:	03e907b3          	mul	a5,s2,t5
800c3c88:	03e68333          	mul	t1,a3,t5
800c3c8c:	0107d513          	srli	a0,a5,0x10
800c3c90:	03288733          	mul	a4,a7,s2
800c3c94:	00670733          	add	a4,a4,t1
800c3c98:	00e50533          	add	a0,a0,a4
800c3c9c:	03168e33          	mul	t3,a3,a7
800c3ca0:	00657463          	bgeu	a0,t1,800c3ca8 <__muldf3+0x120>
800c3ca4:	010e0e33          	add	t3,t3,a6
800c3ca8:	01055713          	srli	a4,a0,0x10
800c3cac:	01d57533          	and	a0,a0,t4
800c3cb0:	01d7f7b3          	and	a5,a5,t4
800c3cb4:	01045813          	srli	a6,s0,0x10
800c3cb8:	01d47eb3          	and	t4,s0,t4
800c3cbc:	01051513          	slli	a0,a0,0x10
800c3cc0:	00f50533          	add	a0,a0,a5
800c3cc4:	03d90fb3          	mul	t6,s2,t4
800c3cc8:	03d687b3          	mul	a5,a3,t4
800c3ccc:	03280933          	mul	s2,a6,s2
800c3cd0:	03068333          	mul	t1,a3,a6
800c3cd4:	00f90933          	add	s2,s2,a5
800c3cd8:	010fd693          	srli	a3,t6,0x10
800c3cdc:	012686b3          	add	a3,a3,s2
800c3ce0:	00f6f663          	bgeu	a3,a5,800c3cec <__muldf3+0x164>
800c3ce4:	000107b7          	lui	a5,0x10
800c3ce8:	00f30333          	add	t1,t1,a5
800c3cec:	000103b7          	lui	t2,0x10
800c3cf0:	0106d793          	srli	a5,a3,0x10
800c3cf4:	fff38293          	addi	t0,t2,-1 # ffff <__stack_size+0xf7ff>
800c3cf8:	00678333          	add	t1,a5,t1
800c3cfc:	0056f7b3          	and	a5,a3,t0
800c3d00:	005fffb3          	and	t6,t6,t0
800c3d04:	0104d913          	srli	s2,s1,0x10
800c3d08:	0054f2b3          	and	t0,s1,t0
800c3d0c:	01079793          	slli	a5,a5,0x10
800c3d10:	01f787b3          	add	a5,a5,t6
800c3d14:	03288433          	mul	s0,a7,s2
800c3d18:	00f70733          	add	a4,a4,a5
800c3d1c:	025f0fb3          	mul	t6,t5,t0
800c3d20:	025888b3          	mul	a7,a7,t0
800c3d24:	010fd693          	srli	a3,t6,0x10
800c3d28:	03e90f33          	mul	t5,s2,t5
800c3d2c:	01e888b3          	add	a7,a7,t5
800c3d30:	011686b3          	add	a3,a3,a7
800c3d34:	01e6f463          	bgeu	a3,t5,800c3d3c <__muldf3+0x1b4>
800c3d38:	00740433          	add	s0,s0,t2
800c3d3c:	025e83b3          	mul	t2,t4,t0
800c3d40:	0106df13          	srli	t5,a3,0x10
800c3d44:	000104b7          	lui	s1,0x10
800c3d48:	008f0f33          	add	t5,t5,s0
800c3d4c:	fff48413          	addi	s0,s1,-1 # ffff <__stack_size+0xf7ff>
800c3d50:	0086f6b3          	and	a3,a3,s0
800c3d54:	01069693          	slli	a3,a3,0x10
800c3d58:	008fffb3          	and	t6,t6,s0
800c3d5c:	01f68fb3          	add	t6,a3,t6
800c3d60:	03d90eb3          	mul	t4,s2,t4
800c3d64:	0103d693          	srli	a3,t2,0x10
800c3d68:	032808b3          	mul	a7,a6,s2
800c3d6c:	02580833          	mul	a6,a6,t0
800c3d70:	01d80833          	add	a6,a6,t4
800c3d74:	01068833          	add	a6,a3,a6
800c3d78:	01d87463          	bgeu	a6,t4,800c3d80 <__muldf3+0x1f8>
800c3d7c:	009888b3          	add	a7,a7,s1
800c3d80:	008876b3          	and	a3,a6,s0
800c3d84:	0083f3b3          	and	t2,t2,s0
800c3d88:	01069693          	slli	a3,a3,0x10
800c3d8c:	01c70733          	add	a4,a4,t3
800c3d90:	007686b3          	add	a3,a3,t2
800c3d94:	00668333          	add	t1,a3,t1
800c3d98:	00f737b3          	sltu	a5,a4,a5
800c3d9c:	00f307b3          	add	a5,t1,a5
800c3da0:	00d336b3          	sltu	a3,t1,a3
800c3da4:	0067b333          	sltu	t1,a5,t1
800c3da8:	01085813          	srli	a6,a6,0x10
800c3dac:	0066e6b3          	or	a3,a3,t1
800c3db0:	010686b3          	add	a3,a3,a6
800c3db4:	01f70833          	add	a6,a4,t6
800c3db8:	01e78f33          	add	t5,a5,t5
800c3dbc:	00e83733          	sltu	a4,a6,a4
800c3dc0:	00ef0733          	add	a4,t5,a4
800c3dc4:	00ff3433          	sltu	s0,t5,a5
800c3dc8:	01e73f33          	sltu	t5,a4,t5
800c3dcc:	01e46433          	or	s0,s0,t5
800c3dd0:	00d40433          	add	s0,s0,a3
800c3dd4:	01140433          	add	s0,s0,a7
800c3dd8:	01775793          	srli	a5,a4,0x17
800c3ddc:	00941413          	slli	s0,s0,0x9
800c3de0:	00f46433          	or	s0,s0,a5
800c3de4:	00981793          	slli	a5,a6,0x9
800c3de8:	00a7e7b3          	or	a5,a5,a0
800c3dec:	00f037b3          	snez	a5,a5
800c3df0:	01785813          	srli	a6,a6,0x17
800c3df4:	00971713          	slli	a4,a4,0x9
800c3df8:	0107e7b3          	or	a5,a5,a6
800c3dfc:	00e7e7b3          	or	a5,a5,a4
800c3e00:	01000737          	lui	a4,0x1000
800c3e04:	00e47733          	and	a4,s0,a4
800c3e08:	28070063          	beqz	a4,800c4088 <__muldf3+0x500>
800c3e0c:	0017d713          	srli	a4,a5,0x1
800c3e10:	0017f793          	andi	a5,a5,1
800c3e14:	00f76733          	or	a4,a4,a5
800c3e18:	01f41793          	slli	a5,s0,0x1f
800c3e1c:	00f767b3          	or	a5,a4,a5
800c3e20:	00145413          	srli	s0,s0,0x1
800c3e24:	3ff58693          	addi	a3,a1,1023 # 8003ff <__heap_size+0x3ff>
800c3e28:	26d05463          	blez	a3,800c4090 <__muldf3+0x508>
800c3e2c:	0077f713          	andi	a4,a5,7
800c3e30:	02070063          	beqz	a4,800c3e50 <__muldf3+0x2c8>
800c3e34:	00f7f713          	andi	a4,a5,15
800c3e38:	00400513          	li	a0,4
800c3e3c:	00a70a63          	beq	a4,a0,800c3e50 <__muldf3+0x2c8>
800c3e40:	00478713          	addi	a4,a5,4 # 10004 <__stack_size+0xf804>
800c3e44:	00f73533          	sltu	a0,a4,a5
800c3e48:	00a40433          	add	s0,s0,a0
800c3e4c:	00070793          	mv	a5,a4
800c3e50:	01000737          	lui	a4,0x1000
800c3e54:	00e47733          	and	a4,s0,a4
800c3e58:	00070a63          	beqz	a4,800c3e6c <__muldf3+0x2e4>
800c3e5c:	ff000737          	lui	a4,0xff000
800c3e60:	fff70713          	addi	a4,a4,-1 # feffffff <__stack_top+0x7e2fe7ff>
800c3e64:	00e47433          	and	s0,s0,a4
800c3e68:	40058693          	addi	a3,a1,1024
800c3e6c:	7fe00713          	li	a4,2046
800c3e70:	2ed74a63          	blt	a4,a3,800c4164 <__muldf3+0x5dc>
800c3e74:	01d41713          	slli	a4,s0,0x1d
800c3e78:	0037d793          	srli	a5,a5,0x3
800c3e7c:	00f76733          	or	a4,a4,a5
800c3e80:	00345413          	srli	s0,s0,0x3
800c3e84:	00c41413          	slli	s0,s0,0xc
800c3e88:	00c45413          	srli	s0,s0,0xc
800c3e8c:	01469693          	slli	a3,a3,0x14
800c3e90:	02c12083          	lw	ra,44(sp)
800c3e94:	0086e6b3          	or	a3,a3,s0
800c3e98:	02812403          	lw	s0,40(sp)
800c3e9c:	01f61613          	slli	a2,a2,0x1f
800c3ea0:	00c6e7b3          	or	a5,a3,a2
800c3ea4:	02412483          	lw	s1,36(sp)
800c3ea8:	02012903          	lw	s2,32(sp)
800c3eac:	01c12983          	lw	s3,28(sp)
800c3eb0:	01812a03          	lw	s4,24(sp)
800c3eb4:	01412a83          	lw	s5,20(sp)
800c3eb8:	01012b03          	lw	s6,16(sp)
800c3ebc:	00c12b83          	lw	s7,12(sp)
800c3ec0:	00070513          	mv	a0,a4
800c3ec4:	00078593          	mv	a1,a5
800c3ec8:	03010113          	addi	sp,sp,48
800c3ecc:	00008067          	ret
800c3ed0:	00a4e933          	or	s2,s1,a0
800c3ed4:	08090063          	beqz	s2,800c3f54 <__muldf3+0x3cc>
800c3ed8:	04048063          	beqz	s1,800c3f18 <__muldf3+0x390>
800c3edc:	00048513          	mv	a0,s1
800c3ee0:	4cd000ef          	jal	ra,800c4bac <__clzsi2>
800c3ee4:	ff550713          	addi	a4,a0,-11
800c3ee8:	01d00793          	li	a5,29
800c3eec:	ff850693          	addi	a3,a0,-8
800c3ef0:	40e787b3          	sub	a5,a5,a4
800c3ef4:	00d494b3          	sll	s1,s1,a3
800c3ef8:	00f457b3          	srl	a5,s0,a5
800c3efc:	0097e7b3          	or	a5,a5,s1
800c3f00:	00d414b3          	sll	s1,s0,a3
800c3f04:	c0d00a93          	li	s5,-1011
800c3f08:	00048913          	mv	s2,s1
800c3f0c:	40aa8ab3          	sub	s5,s5,a0
800c3f10:	00078493          	mv	s1,a5
800c3f14:	ce5ff06f          	j	800c3bf8 <__muldf3+0x70>
800c3f18:	495000ef          	jal	ra,800c4bac <__clzsi2>
800c3f1c:	00050793          	mv	a5,a0
800c3f20:	01578713          	addi	a4,a5,21
800c3f24:	01c00693          	li	a3,28
800c3f28:	02050513          	addi	a0,a0,32
800c3f2c:	fae6dee3          	bge	a3,a4,800c3ee8 <__muldf3+0x360>
800c3f30:	ff878793          	addi	a5,a5,-8
800c3f34:	00f417b3          	sll	a5,s0,a5
800c3f38:	fcdff06f          	j	800c3f04 <__muldf3+0x37c>
800c3f3c:	00a4e933          	or	s2,s1,a0
800c3f40:	02090263          	beqz	s2,800c3f64 <__muldf3+0x3dc>
800c3f44:	00050913          	mv	s2,a0
800c3f48:	7ff00a93          	li	s5,2047
800c3f4c:	00300b93          	li	s7,3
800c3f50:	cadff06f          	j	800c3bfc <__muldf3+0x74>
800c3f54:	00000493          	li	s1,0
800c3f58:	00000a93          	li	s5,0
800c3f5c:	00100b93          	li	s7,1
800c3f60:	c9dff06f          	j	800c3bfc <__muldf3+0x74>
800c3f64:	00000493          	li	s1,0
800c3f68:	7ff00a93          	li	s5,2047
800c3f6c:	00200b93          	li	s7,2
800c3f70:	c8dff06f          	j	800c3bfc <__muldf3+0x74>
800c3f74:	016467b3          	or	a5,s0,s6
800c3f78:	08078263          	beqz	a5,800c3ffc <__muldf3+0x474>
800c3f7c:	04040063          	beqz	s0,800c3fbc <__muldf3+0x434>
800c3f80:	00040513          	mv	a0,s0
800c3f84:	429000ef          	jal	ra,800c4bac <__clzsi2>
800c3f88:	ff550693          	addi	a3,a0,-11
800c3f8c:	01d00713          	li	a4,29
800c3f90:	ff850793          	addi	a5,a0,-8
800c3f94:	40d70733          	sub	a4,a4,a3
800c3f98:	00f41433          	sll	s0,s0,a5
800c3f9c:	00eb5733          	srl	a4,s6,a4
800c3fa0:	00876733          	or	a4,a4,s0
800c3fa4:	00fb1433          	sll	s0,s6,a5
800c3fa8:	c0d00693          	li	a3,-1011
800c3fac:	00040793          	mv	a5,s0
800c3fb0:	40a686b3          	sub	a3,a3,a0
800c3fb4:	00070413          	mv	s0,a4
800c3fb8:	c81ff06f          	j	800c3c38 <__muldf3+0xb0>
800c3fbc:	000b0513          	mv	a0,s6
800c3fc0:	3ed000ef          	jal	ra,800c4bac <__clzsi2>
800c3fc4:	00050793          	mv	a5,a0
800c3fc8:	01578693          	addi	a3,a5,21
800c3fcc:	01c00713          	li	a4,28
800c3fd0:	02050513          	addi	a0,a0,32
800c3fd4:	fad75ce3          	bge	a4,a3,800c3f8c <__muldf3+0x404>
800c3fd8:	ff878793          	addi	a5,a5,-8
800c3fdc:	00fb1733          	sll	a4,s6,a5
800c3fe0:	fc9ff06f          	j	800c3fa8 <__muldf3+0x420>
800c3fe4:	016467b3          	or	a5,s0,s6
800c3fe8:	02078263          	beqz	a5,800c400c <__muldf3+0x484>
800c3fec:	000b0793          	mv	a5,s6
800c3ff0:	7ff00693          	li	a3,2047
800c3ff4:	00300513          	li	a0,3
800c3ff8:	c45ff06f          	j	800c3c3c <__muldf3+0xb4>
800c3ffc:	00000413          	li	s0,0
800c4000:	00000693          	li	a3,0
800c4004:	00100513          	li	a0,1
800c4008:	c35ff06f          	j	800c3c3c <__muldf3+0xb4>
800c400c:	00000413          	li	s0,0
800c4010:	7ff00693          	li	a3,2047
800c4014:	00200513          	li	a0,2
800c4018:	c25ff06f          	j	800c3c3c <__muldf3+0xb4>
800c401c:	00100693          	li	a3,1
800c4020:	00e696b3          	sll	a3,a3,a4
800c4024:	5306f713          	andi	a4,a3,1328
800c4028:	04071863          	bnez	a4,800c4078 <__muldf3+0x4f0>
800c402c:	2406f813          	andi	a6,a3,576
800c4030:	10081c63          	bnez	a6,800c4148 <__muldf3+0x5c0>
800c4034:	0886f693          	andi	a3,a3,136
800c4038:	c2068ae3          	beqz	a3,800c3c6c <__muldf3+0xe4>
800c403c:	00098613          	mv	a2,s3
800c4040:	00200713          	li	a4,2
800c4044:	12e50063          	beq	a0,a4,800c4164 <__muldf3+0x5dc>
800c4048:	00300713          	li	a4,3
800c404c:	10e50663          	beq	a0,a4,800c4158 <__muldf3+0x5d0>
800c4050:	00100713          	li	a4,1
800c4054:	dce518e3          	bne	a0,a4,800c3e24 <__muldf3+0x29c>
800c4058:	00000413          	li	s0,0
800c405c:	00000713          	li	a4,0
800c4060:	0ac0006f          	j	800c410c <__muldf3+0x584>
800c4064:	00f00693          	li	a3,15
800c4068:	0ed70863          	beq	a4,a3,800c4158 <__muldf3+0x5d0>
800c406c:	00b00693          	li	a3,11
800c4070:	000a0613          	mv	a2,s4
800c4074:	fcd704e3          	beq	a4,a3,800c403c <__muldf3+0x4b4>
800c4078:	00048413          	mv	s0,s1
800c407c:	00090793          	mv	a5,s2
800c4080:	000b8513          	mv	a0,s7
800c4084:	fbdff06f          	j	800c4040 <__muldf3+0x4b8>
800c4088:	000a8593          	mv	a1,s5
800c408c:	d99ff06f          	j	800c3e24 <__muldf3+0x29c>
800c4090:	00100513          	li	a0,1
800c4094:	00068c63          	beqz	a3,800c40ac <__muldf3+0x524>
800c4098:	40d50533          	sub	a0,a0,a3
800c409c:	03800713          	li	a4,56
800c40a0:	faa74ce3          	blt	a4,a0,800c4058 <__muldf3+0x4d0>
800c40a4:	01f00713          	li	a4,31
800c40a8:	06a74663          	blt	a4,a0,800c4114 <__muldf3+0x58c>
800c40ac:	41e58593          	addi	a1,a1,1054
800c40b0:	00a7d733          	srl	a4,a5,a0
800c40b4:	00b797b3          	sll	a5,a5,a1
800c40b8:	00f037b3          	snez	a5,a5
800c40bc:	00b415b3          	sll	a1,s0,a1
800c40c0:	00b7e7b3          	or	a5,a5,a1
800c40c4:	00e7e7b3          	or	a5,a5,a4
800c40c8:	00a45433          	srl	s0,s0,a0
800c40cc:	0077f713          	andi	a4,a5,7
800c40d0:	02070063          	beqz	a4,800c40f0 <__muldf3+0x568>
800c40d4:	00f7f713          	andi	a4,a5,15
800c40d8:	00400693          	li	a3,4
800c40dc:	00d70a63          	beq	a4,a3,800c40f0 <__muldf3+0x568>
800c40e0:	00478713          	addi	a4,a5,4
800c40e4:	00f736b3          	sltu	a3,a4,a5
800c40e8:	00d40433          	add	s0,s0,a3
800c40ec:	00070793          	mv	a5,a4
800c40f0:	00800737          	lui	a4,0x800
800c40f4:	00e47733          	and	a4,s0,a4
800c40f8:	06071e63          	bnez	a4,800c4174 <__muldf3+0x5ec>
800c40fc:	01d41713          	slli	a4,s0,0x1d
800c4100:	0037d793          	srli	a5,a5,0x3
800c4104:	00f76733          	or	a4,a4,a5
800c4108:	00345413          	srli	s0,s0,0x3
800c410c:	00000693          	li	a3,0
800c4110:	d75ff06f          	j	800c3e84 <__muldf3+0x2fc>
800c4114:	fe100713          	li	a4,-31
800c4118:	40d70733          	sub	a4,a4,a3
800c411c:	02000813          	li	a6,32
800c4120:	00e45733          	srl	a4,s0,a4
800c4124:	00000693          	li	a3,0
800c4128:	01050663          	beq	a0,a6,800c4134 <__muldf3+0x5ac>
800c412c:	43e58593          	addi	a1,a1,1086
800c4130:	00b416b3          	sll	a3,s0,a1
800c4134:	00f6e6b3          	or	a3,a3,a5
800c4138:	00d036b3          	snez	a3,a3
800c413c:	00d767b3          	or	a5,a4,a3
800c4140:	00000413          	li	s0,0
800c4144:	f89ff06f          	j	800c40cc <__muldf3+0x544>
800c4148:	00080437          	lui	s0,0x80
800c414c:	7ff00693          	li	a3,2047
800c4150:	00000613          	li	a2,0
800c4154:	d31ff06f          	j	800c3e84 <__muldf3+0x2fc>
800c4158:	00080437          	lui	s0,0x80
800c415c:	00000713          	li	a4,0
800c4160:	fedff06f          	j	800c414c <__muldf3+0x5c4>
800c4164:	00000413          	li	s0,0
800c4168:	00000713          	li	a4,0
800c416c:	7ff00693          	li	a3,2047
800c4170:	d15ff06f          	j	800c3e84 <__muldf3+0x2fc>
800c4174:	00000413          	li	s0,0
800c4178:	00000713          	li	a4,0
800c417c:	00100693          	li	a3,1
800c4180:	d05ff06f          	j	800c3e84 <__muldf3+0x2fc>

800c4184 <__subdf3>:
800c4184:	00100837          	lui	a6,0x100
800c4188:	fff80813          	addi	a6,a6,-1 # fffff <__stack_size+0xff7ff>
800c418c:	fe010113          	addi	sp,sp,-32
800c4190:	00b878b3          	and	a7,a6,a1
800c4194:	0145d713          	srli	a4,a1,0x14
800c4198:	01d55793          	srli	a5,a0,0x1d
800c419c:	00812c23          	sw	s0,24(sp)
800c41a0:	00912a23          	sw	s1,20(sp)
800c41a4:	7ff77413          	andi	s0,a4,2047
800c41a8:	01f5d493          	srli	s1,a1,0x1f
800c41ac:	00389713          	slli	a4,a7,0x3
800c41b0:	00d875b3          	and	a1,a6,a3
800c41b4:	0146d813          	srli	a6,a3,0x14
800c41b8:	00e7e7b3          	or	a5,a5,a4
800c41bc:	00359593          	slli	a1,a1,0x3
800c41c0:	01d65713          	srli	a4,a2,0x1d
800c41c4:	00112e23          	sw	ra,28(sp)
800c41c8:	01212823          	sw	s2,16(sp)
800c41cc:	01312623          	sw	s3,12(sp)
800c41d0:	7ff87813          	andi	a6,a6,2047
800c41d4:	7ff00893          	li	a7,2047
800c41d8:	00351513          	slli	a0,a0,0x3
800c41dc:	01f6d693          	srli	a3,a3,0x1f
800c41e0:	00b76733          	or	a4,a4,a1
800c41e4:	00361613          	slli	a2,a2,0x3
800c41e8:	07181c63          	bne	a6,a7,800c4260 <__subdf3+0xdc>
800c41ec:	00c768b3          	or	a7,a4,a2
800c41f0:	80140593          	addi	a1,s0,-2047 # 7f801 <__stack_size+0x7f001>
800c41f4:	00088e63          	beqz	a7,800c4210 <__subdf3+0x8c>
800c41f8:	00068313          	mv	t1,a3
800c41fc:	42d49a63          	bne	s1,a3,800c4630 <__subdf3+0x4ac>
800c4200:	26058863          	beqz	a1,800c4470 <__subdf3+0x2ec>
800c4204:	76041a63          	bnez	s0,800c4978 <__subdf3+0x7f4>
800c4208:	7ff00413          	li	s0,2047
800c420c:	1f80006f          	j	800c4404 <__subdf3+0x280>
800c4210:	0016c313          	xori	t1,a3,1
800c4214:	42649c63          	bne	s1,t1,800c464c <__subdf3+0x4c8>
800c4218:	24058c63          	beqz	a1,800c4470 <__subdf3+0x2ec>
800c421c:	fe0406e3          	beqz	s0,800c4208 <__subdf3+0x84>
800c4220:	00000793          	li	a5,0
800c4224:	00000513          	li	a0,0
800c4228:	7ff00413          	li	s0,2047
800c422c:	008006b7          	lui	a3,0x800
800c4230:	00d7f6b3          	and	a3,a5,a3
800c4234:	74068c63          	beqz	a3,800c498c <__subdf3+0x808>
800c4238:	00140413          	addi	s0,s0,1
800c423c:	7ff00713          	li	a4,2047
800c4240:	10e40663          	beq	s0,a4,800c434c <__subdf3+0x1c8>
800c4244:	ff800737          	lui	a4,0xff800
800c4248:	fff70713          	addi	a4,a4,-1 # ff7fffff <__stack_top+0x7eafe7ff>
800c424c:	00e7f7b3          	and	a5,a5,a4
800c4250:	00355513          	srli	a0,a0,0x3
800c4254:	01d79693          	slli	a3,a5,0x1d
800c4258:	00a6e6b3          	or	a3,a3,a0
800c425c:	6bc0006f          	j	800c4918 <__subdf3+0x794>
800c4260:	0016c313          	xori	t1,a3,1
800c4264:	410405b3          	sub	a1,s0,a6
800c4268:	2c649a63          	bne	s1,t1,800c453c <__subdf3+0x3b8>
800c426c:	12b05863          	blez	a1,800c439c <__subdf3+0x218>
800c4270:	06081663          	bnez	a6,800c42dc <__subdf3+0x158>
800c4274:	00c766b3          	or	a3,a4,a2
800c4278:	70068663          	beqz	a3,800c4984 <__subdf3+0x800>
800c427c:	fff58693          	addi	a3,a1,-1
800c4280:	04069863          	bnez	a3,800c42d0 <__subdf3+0x14c>
800c4284:	00c50633          	add	a2,a0,a2
800c4288:	00a636b3          	sltu	a3,a2,a0
800c428c:	00e78733          	add	a4,a5,a4
800c4290:	00d707b3          	add	a5,a4,a3
800c4294:	00800737          	lui	a4,0x800
800c4298:	00e7f733          	and	a4,a5,a4
800c429c:	00060513          	mv	a0,a2
800c42a0:	26071863          	bnez	a4,800c4510 <__subdf3+0x38c>
800c42a4:	00100413          	li	s0,1
800c42a8:	00757713          	andi	a4,a0,7
800c42ac:	f80700e3          	beqz	a4,800c422c <__subdf3+0xa8>
800c42b0:	00f57713          	andi	a4,a0,15
800c42b4:	00400693          	li	a3,4
800c42b8:	f6d70ae3          	beq	a4,a3,800c422c <__subdf3+0xa8>
800c42bc:	00450713          	addi	a4,a0,4
800c42c0:	00a736b3          	sltu	a3,a4,a0
800c42c4:	00d787b3          	add	a5,a5,a3
800c42c8:	00070513          	mv	a0,a4
800c42cc:	f61ff06f          	j	800c422c <__subdf3+0xa8>
800c42d0:	09159263          	bne	a1,a7,800c4354 <__subdf3+0x1d0>
800c42d4:	7ff00413          	li	s0,2047
800c42d8:	fd1ff06f          	j	800c42a8 <__subdf3+0x124>
800c42dc:	fd1406e3          	beq	s0,a7,800c42a8 <__subdf3+0x124>
800c42e0:	03800693          	li	a3,56
800c42e4:	06b6cc63          	blt	a3,a1,800c435c <__subdf3+0x1d8>
800c42e8:	008006b7          	lui	a3,0x800
800c42ec:	00d76733          	or	a4,a4,a3
800c42f0:	00058693          	mv	a3,a1
800c42f4:	01f00593          	li	a1,31
800c42f8:	06d5c863          	blt	a1,a3,800c4368 <__subdf3+0x1e4>
800c42fc:	02000813          	li	a6,32
800c4300:	40d80833          	sub	a6,a6,a3
800c4304:	00d658b3          	srl	a7,a2,a3
800c4308:	010715b3          	sll	a1,a4,a6
800c430c:	01061833          	sll	a6,a2,a6
800c4310:	0115e5b3          	or	a1,a1,a7
800c4314:	01003833          	snez	a6,a6
800c4318:	0105e633          	or	a2,a1,a6
800c431c:	00d756b3          	srl	a3,a4,a3
800c4320:	00a60533          	add	a0,a2,a0
800c4324:	00f686b3          	add	a3,a3,a5
800c4328:	00c53633          	sltu	a2,a0,a2
800c432c:	00c687b3          	add	a5,a3,a2
800c4330:	00800737          	lui	a4,0x800
800c4334:	00e7f733          	and	a4,a5,a4
800c4338:	f60708e3          	beqz	a4,800c42a8 <__subdf3+0x124>
800c433c:	00140413          	addi	s0,s0,1
800c4340:	7ff00713          	li	a4,2047
800c4344:	1ce41863          	bne	s0,a4,800c4514 <__subdf3+0x390>
800c4348:	7ff00413          	li	s0,2047
800c434c:	00000793          	li	a5,0
800c4350:	1880006f          	j	800c44d8 <__subdf3+0x354>
800c4354:	03800593          	li	a1,56
800c4358:	f8d5dee3          	bge	a1,a3,800c42f4 <__subdf3+0x170>
800c435c:	00000693          	li	a3,0
800c4360:	00100613          	li	a2,1
800c4364:	fbdff06f          	j	800c4320 <__subdf3+0x19c>
800c4368:	fe068593          	addi	a1,a3,-32 # 7fffe0 <__stack_size+0x7ff7e0>
800c436c:	02000893          	li	a7,32
800c4370:	00b755b3          	srl	a1,a4,a1
800c4374:	00000813          	li	a6,0
800c4378:	01168863          	beq	a3,a7,800c4388 <__subdf3+0x204>
800c437c:	04000813          	li	a6,64
800c4380:	40d80833          	sub	a6,a6,a3
800c4384:	01071833          	sll	a6,a4,a6
800c4388:	00c86833          	or	a6,a6,a2
800c438c:	01003833          	snez	a6,a6
800c4390:	0105e633          	or	a2,a1,a6
800c4394:	00000693          	li	a3,0
800c4398:	f89ff06f          	j	800c4320 <__subdf3+0x19c>
800c439c:	0c058a63          	beqz	a1,800c4470 <__subdf3+0x2ec>
800c43a0:	408806b3          	sub	a3,a6,s0
800c43a4:	04040e63          	beqz	s0,800c4400 <__subdf3+0x27c>
800c43a8:	03800593          	li	a1,56
800c43ac:	08d5c263          	blt	a1,a3,800c4430 <__subdf3+0x2ac>
800c43b0:	008005b7          	lui	a1,0x800
800c43b4:	00b7e7b3          	or	a5,a5,a1
800c43b8:	01f00593          	li	a1,31
800c43bc:	08d5c063          	blt	a1,a3,800c443c <__subdf3+0x2b8>
800c43c0:	02000893          	li	a7,32
800c43c4:	40d888b3          	sub	a7,a7,a3
800c43c8:	011795b3          	sll	a1,a5,a7
800c43cc:	00d55333          	srl	t1,a0,a3
800c43d0:	011518b3          	sll	a7,a0,a7
800c43d4:	0065e5b3          	or	a1,a1,t1
800c43d8:	011038b3          	snez	a7,a7
800c43dc:	0115e5b3          	or	a1,a1,a7
800c43e0:	00d7d6b3          	srl	a3,a5,a3
800c43e4:	00c58633          	add	a2,a1,a2
800c43e8:	00e686b3          	add	a3,a3,a4
800c43ec:	00b635b3          	sltu	a1,a2,a1
800c43f0:	00060513          	mv	a0,a2
800c43f4:	00b687b3          	add	a5,a3,a1
800c43f8:	00080413          	mv	s0,a6
800c43fc:	f35ff06f          	j	800c4330 <__subdf3+0x1ac>
800c4400:	00068413          	mv	s0,a3
800c4404:	00a7e6b3          	or	a3,a5,a0
800c4408:	00068a63          	beqz	a3,800c441c <__subdf3+0x298>
800c440c:	fff40693          	addi	a3,s0,-1
800c4410:	e6068ae3          	beqz	a3,800c4284 <__subdf3+0x100>
800c4414:	7ff00593          	li	a1,2047
800c4418:	00b41863          	bne	s0,a1,800c4428 <__subdf3+0x2a4>
800c441c:	00070793          	mv	a5,a4
800c4420:	00060513          	mv	a0,a2
800c4424:	e85ff06f          	j	800c42a8 <__subdf3+0x124>
800c4428:	03800593          	li	a1,56
800c442c:	f8d5d6e3          	bge	a1,a3,800c43b8 <__subdf3+0x234>
800c4430:	00000693          	li	a3,0
800c4434:	00100593          	li	a1,1
800c4438:	fadff06f          	j	800c43e4 <__subdf3+0x260>
800c443c:	fe068593          	addi	a1,a3,-32
800c4440:	02000313          	li	t1,32
800c4444:	00b7d5b3          	srl	a1,a5,a1
800c4448:	00000893          	li	a7,0
800c444c:	00668863          	beq	a3,t1,800c445c <__subdf3+0x2d8>
800c4450:	04000893          	li	a7,64
800c4454:	40d888b3          	sub	a7,a7,a3
800c4458:	011798b3          	sll	a7,a5,a7
800c445c:	00a8e8b3          	or	a7,a7,a0
800c4460:	011038b3          	snez	a7,a7
800c4464:	0115e5b3          	or	a1,a1,a7
800c4468:	00000693          	li	a3,0
800c446c:	f79ff06f          	j	800c43e4 <__subdf3+0x260>
800c4470:	00140693          	addi	a3,s0,1
800c4474:	7fe6f593          	andi	a1,a3,2046
800c4478:	06059463          	bnez	a1,800c44e0 <__subdf3+0x35c>
800c447c:	00a7e6b3          	or	a3,a5,a0
800c4480:	04041063          	bnez	s0,800c44c0 <__subdf3+0x33c>
800c4484:	f8068ce3          	beqz	a3,800c441c <__subdf3+0x298>
800c4488:	00c766b3          	or	a3,a4,a2
800c448c:	e0068ee3          	beqz	a3,800c42a8 <__subdf3+0x124>
800c4490:	00c50633          	add	a2,a0,a2
800c4494:	00a636b3          	sltu	a3,a2,a0
800c4498:	00e78733          	add	a4,a5,a4
800c449c:	00d707b3          	add	a5,a4,a3
800c44a0:	00800737          	lui	a4,0x800
800c44a4:	00e7f733          	and	a4,a5,a4
800c44a8:	00060513          	mv	a0,a2
800c44ac:	de070ee3          	beqz	a4,800c42a8 <__subdf3+0x124>
800c44b0:	ff800737          	lui	a4,0xff800
800c44b4:	fff70713          	addi	a4,a4,-1 # ff7fffff <__stack_top+0x7eafe7ff>
800c44b8:	00e7f7b3          	and	a5,a5,a4
800c44bc:	de9ff06f          	j	800c42a4 <__subdf3+0x120>
800c44c0:	4a068c63          	beqz	a3,800c4978 <__subdf3+0x7f4>
800c44c4:	00c76633          	or	a2,a4,a2
800c44c8:	e00606e3          	beqz	a2,800c42d4 <__subdf3+0x150>
800c44cc:	00000493          	li	s1,0
800c44d0:	7ff00413          	li	s0,2047
800c44d4:	000807b7          	lui	a5,0x80
800c44d8:	00000693          	li	a3,0
800c44dc:	4400006f          	j	800c491c <__subdf3+0x798>
800c44e0:	7ff00593          	li	a1,2047
800c44e4:	e6b682e3          	beq	a3,a1,800c4348 <__subdf3+0x1c4>
800c44e8:	00c50633          	add	a2,a0,a2
800c44ec:	00a63533          	sltu	a0,a2,a0
800c44f0:	00e78733          	add	a4,a5,a4
800c44f4:	00a70733          	add	a4,a4,a0
800c44f8:	01f71513          	slli	a0,a4,0x1f
800c44fc:	00165613          	srli	a2,a2,0x1
800c4500:	00c56533          	or	a0,a0,a2
800c4504:	00175793          	srli	a5,a4,0x1
800c4508:	00068413          	mv	s0,a3
800c450c:	d9dff06f          	j	800c42a8 <__subdf3+0x124>
800c4510:	00200413          	li	s0,2
800c4514:	ff800737          	lui	a4,0xff800
800c4518:	fff70713          	addi	a4,a4,-1 # ff7fffff <__stack_top+0x7eafe7ff>
800c451c:	00e7f7b3          	and	a5,a5,a4
800c4520:	00155713          	srli	a4,a0,0x1
800c4524:	00157513          	andi	a0,a0,1
800c4528:	00a76733          	or	a4,a4,a0
800c452c:	01f79513          	slli	a0,a5,0x1f
800c4530:	00e56533          	or	a0,a0,a4
800c4534:	0017d793          	srli	a5,a5,0x1
800c4538:	d71ff06f          	j	800c42a8 <__subdf3+0x124>
800c453c:	12b05663          	blez	a1,800c4668 <__subdf3+0x4e4>
800c4540:	04081463          	bnez	a6,800c4588 <__subdf3+0x404>
800c4544:	00c766b3          	or	a3,a4,a2
800c4548:	42068e63          	beqz	a3,800c4984 <__subdf3+0x800>
800c454c:	fff58693          	addi	a3,a1,-1 # 7fffff <__stack_size+0x7ff7ff>
800c4550:	02069063          	bnez	a3,800c4570 <__subdf3+0x3ec>
800c4554:	40c50633          	sub	a2,a0,a2
800c4558:	00c536b3          	sltu	a3,a0,a2
800c455c:	40e78733          	sub	a4,a5,a4
800c4560:	00060513          	mv	a0,a2
800c4564:	40d707b3          	sub	a5,a4,a3
800c4568:	00100413          	li	s0,1
800c456c:	0740006f          	j	800c45e0 <__subdf3+0x45c>
800c4570:	d71582e3          	beq	a1,a7,800c42d4 <__subdf3+0x150>
800c4574:	03800593          	li	a1,56
800c4578:	02d5d463          	bge	a1,a3,800c45a0 <__subdf3+0x41c>
800c457c:	00000693          	li	a3,0
800c4580:	00100613          	li	a2,1
800c4584:	0480006f          	j	800c45cc <__subdf3+0x448>
800c4588:	d31400e3          	beq	s0,a7,800c42a8 <__subdf3+0x124>
800c458c:	03800693          	li	a3,56
800c4590:	feb6c6e3          	blt	a3,a1,800c457c <__subdf3+0x3f8>
800c4594:	008006b7          	lui	a3,0x800
800c4598:	00d76733          	or	a4,a4,a3
800c459c:	00058693          	mv	a3,a1
800c45a0:	01f00593          	li	a1,31
800c45a4:	04d5cc63          	blt	a1,a3,800c45fc <__subdf3+0x478>
800c45a8:	02000813          	li	a6,32
800c45ac:	40d80833          	sub	a6,a6,a3
800c45b0:	00d658b3          	srl	a7,a2,a3
800c45b4:	010715b3          	sll	a1,a4,a6
800c45b8:	01061833          	sll	a6,a2,a6
800c45bc:	0115e5b3          	or	a1,a1,a7
800c45c0:	01003833          	snez	a6,a6
800c45c4:	0105e633          	or	a2,a1,a6
800c45c8:	00d756b3          	srl	a3,a4,a3
800c45cc:	40c50633          	sub	a2,a0,a2
800c45d0:	00c53733          	sltu	a4,a0,a2
800c45d4:	40d786b3          	sub	a3,a5,a3
800c45d8:	00060513          	mv	a0,a2
800c45dc:	40e687b3          	sub	a5,a3,a4
800c45e0:	00800737          	lui	a4,0x800
800c45e4:	00e7f6b3          	and	a3,a5,a4
800c45e8:	cc0680e3          	beqz	a3,800c42a8 <__subdf3+0x124>
800c45ec:	fff70713          	addi	a4,a4,-1 # 7fffff <__stack_size+0x7ff7ff>
800c45f0:	00e7f9b3          	and	s3,a5,a4
800c45f4:	00050913          	mv	s2,a0
800c45f8:	23c0006f          	j	800c4834 <__subdf3+0x6b0>
800c45fc:	fe068593          	addi	a1,a3,-32 # 7fffe0 <__stack_size+0x7ff7e0>
800c4600:	02000893          	li	a7,32
800c4604:	00b755b3          	srl	a1,a4,a1
800c4608:	00000813          	li	a6,0
800c460c:	01168863          	beq	a3,a7,800c461c <__subdf3+0x498>
800c4610:	04000813          	li	a6,64
800c4614:	40d80833          	sub	a6,a6,a3
800c4618:	01071833          	sll	a6,a4,a6
800c461c:	00c86833          	or	a6,a6,a2
800c4620:	01003833          	snez	a6,a6
800c4624:	0105e633          	or	a2,a1,a6
800c4628:	00000693          	li	a3,0
800c462c:	fa1ff06f          	j	800c45cc <__subdf3+0x448>
800c4630:	12058c63          	beqz	a1,800c4768 <__subdf3+0x5e4>
800c4634:	06040663          	beqz	s0,800c46a0 <__subdf3+0x51c>
800c4638:	00070793          	mv	a5,a4
800c463c:	00060513          	mv	a0,a2
800c4640:	7ff00413          	li	s0,2047
800c4644:	00068493          	mv	s1,a3
800c4648:	c61ff06f          	j	800c42a8 <__subdf3+0x124>
800c464c:	10058e63          	beqz	a1,800c4768 <__subdf3+0x5e4>
800c4650:	04040e63          	beqz	s0,800c46ac <__subdf3+0x528>
800c4654:	00000793          	li	a5,0
800c4658:	00000513          	li	a0,0
800c465c:	7ff00413          	li	s0,2047
800c4660:	00030493          	mv	s1,t1
800c4664:	bc9ff06f          	j	800c422c <__subdf3+0xa8>
800c4668:	10058063          	beqz	a1,800c4768 <__subdf3+0x5e4>
800c466c:	408806b3          	sub	a3,a6,s0
800c4670:	06041063          	bnez	s0,800c46d0 <__subdf3+0x54c>
800c4674:	00030493          	mv	s1,t1
800c4678:	00068413          	mv	s0,a3
800c467c:	00a7e6b3          	or	a3,a5,a0
800c4680:	d8068ee3          	beqz	a3,800c441c <__subdf3+0x298>
800c4684:	fff40693          	addi	a3,s0,-1
800c4688:	02069663          	bnez	a3,800c46b4 <__subdf3+0x530>
800c468c:	40a60533          	sub	a0,a2,a0
800c4690:	40f70733          	sub	a4,a4,a5
800c4694:	00a63633          	sltu	a2,a2,a0
800c4698:	40c707b3          	sub	a5,a4,a2
800c469c:	ecdff06f          	j	800c4568 <__subdf3+0x3e4>
800c46a0:	00068493          	mv	s1,a3
800c46a4:	7ff00413          	li	s0,2047
800c46a8:	fd5ff06f          	j	800c467c <__subdf3+0x4f8>
800c46ac:	00030493          	mv	s1,t1
800c46b0:	ff5ff06f          	j	800c46a4 <__subdf3+0x520>
800c46b4:	7ff00593          	li	a1,2047
800c46b8:	d6b402e3          	beq	s0,a1,800c441c <__subdf3+0x298>
800c46bc:	03800593          	li	a1,56
800c46c0:	02d5d263          	bge	a1,a3,800c46e4 <__subdf3+0x560>
800c46c4:	00000693          	li	a3,0
800c46c8:	00100593          	li	a1,1
800c46cc:	0440006f          	j	800c4710 <__subdf3+0x58c>
800c46d0:	03800593          	li	a1,56
800c46d4:	08d5c663          	blt	a1,a3,800c4760 <__subdf3+0x5dc>
800c46d8:	008005b7          	lui	a1,0x800
800c46dc:	00b7e7b3          	or	a5,a5,a1
800c46e0:	00030493          	mv	s1,t1
800c46e4:	01f00593          	li	a1,31
800c46e8:	04d5c263          	blt	a1,a3,800c472c <__subdf3+0x5a8>
800c46ec:	02000893          	li	a7,32
800c46f0:	40d888b3          	sub	a7,a7,a3
800c46f4:	011795b3          	sll	a1,a5,a7
800c46f8:	00d55333          	srl	t1,a0,a3
800c46fc:	011518b3          	sll	a7,a0,a7
800c4700:	0065e5b3          	or	a1,a1,t1
800c4704:	011038b3          	snez	a7,a7
800c4708:	0115e5b3          	or	a1,a1,a7
800c470c:	00d7d6b3          	srl	a3,a5,a3
800c4710:	40b605b3          	sub	a1,a2,a1
800c4714:	40d706b3          	sub	a3,a4,a3
800c4718:	00b63633          	sltu	a2,a2,a1
800c471c:	00058513          	mv	a0,a1
800c4720:	40c687b3          	sub	a5,a3,a2
800c4724:	00080413          	mv	s0,a6
800c4728:	eb9ff06f          	j	800c45e0 <__subdf3+0x45c>
800c472c:	fe068593          	addi	a1,a3,-32
800c4730:	02000313          	li	t1,32
800c4734:	00b7d5b3          	srl	a1,a5,a1
800c4738:	00000893          	li	a7,0
800c473c:	00668863          	beq	a3,t1,800c474c <__subdf3+0x5c8>
800c4740:	04000893          	li	a7,64
800c4744:	40d888b3          	sub	a7,a7,a3
800c4748:	011798b3          	sll	a7,a5,a7
800c474c:	00a8e8b3          	or	a7,a7,a0
800c4750:	011038b3          	snez	a7,a7
800c4754:	0115e5b3          	or	a1,a1,a7
800c4758:	00000693          	li	a3,0
800c475c:	fb5ff06f          	j	800c4710 <__subdf3+0x58c>
800c4760:	00030493          	mv	s1,t1
800c4764:	f61ff06f          	j	800c46c4 <__subdf3+0x540>
800c4768:	00140693          	addi	a3,s0,1
800c476c:	7fe6f693          	andi	a3,a3,2046
800c4770:	08069863          	bnez	a3,800c4800 <__subdf3+0x67c>
800c4774:	00c766b3          	or	a3,a4,a2
800c4778:	00a7e5b3          	or	a1,a5,a0
800c477c:	06041263          	bnez	s0,800c47e0 <__subdf3+0x65c>
800c4780:	00059c63          	bnez	a1,800c4798 <__subdf3+0x614>
800c4784:	22068a63          	beqz	a3,800c49b8 <__subdf3+0x834>
800c4788:	00070793          	mv	a5,a4
800c478c:	00060513          	mv	a0,a2
800c4790:	00030493          	mv	s1,t1
800c4794:	b15ff06f          	j	800c42a8 <__subdf3+0x124>
800c4798:	b00688e3          	beqz	a3,800c42a8 <__subdf3+0x124>
800c479c:	40c50833          	sub	a6,a0,a2
800c47a0:	010536b3          	sltu	a3,a0,a6
800c47a4:	40e785b3          	sub	a1,a5,a4
800c47a8:	40d585b3          	sub	a1,a1,a3
800c47ac:	008006b7          	lui	a3,0x800
800c47b0:	00d5f6b3          	and	a3,a1,a3
800c47b4:	00068c63          	beqz	a3,800c47cc <__subdf3+0x648>
800c47b8:	40a60533          	sub	a0,a2,a0
800c47bc:	40f70733          	sub	a4,a4,a5
800c47c0:	00a63633          	sltu	a2,a2,a0
800c47c4:	40c707b3          	sub	a5,a4,a2
800c47c8:	fc9ff06f          	j	800c4790 <__subdf3+0x60c>
800c47cc:	00b866b3          	or	a3,a6,a1
800c47d0:	1e068463          	beqz	a3,800c49b8 <__subdf3+0x834>
800c47d4:	00058793          	mv	a5,a1
800c47d8:	00080513          	mv	a0,a6
800c47dc:	acdff06f          	j	800c42a8 <__subdf3+0x124>
800c47e0:	00059c63          	bnez	a1,800c47f8 <__subdf3+0x674>
800c47e4:	1c068e63          	beqz	a3,800c49c0 <__subdf3+0x83c>
800c47e8:	00070793          	mv	a5,a4
800c47ec:	00060513          	mv	a0,a2
800c47f0:	00030493          	mv	s1,t1
800c47f4:	ae1ff06f          	j	800c42d4 <__subdf3+0x150>
800c47f8:	ac068ee3          	beqz	a3,800c42d4 <__subdf3+0x150>
800c47fc:	cd1ff06f          	j	800c44cc <__subdf3+0x348>
800c4800:	40c506b3          	sub	a3,a0,a2
800c4804:	00d535b3          	sltu	a1,a0,a3
800c4808:	40e789b3          	sub	s3,a5,a4
800c480c:	40b989b3          	sub	s3,s3,a1
800c4810:	008005b7          	lui	a1,0x800
800c4814:	00b9f5b3          	and	a1,s3,a1
800c4818:	00068913          	mv	s2,a3
800c481c:	06058c63          	beqz	a1,800c4894 <__subdf3+0x710>
800c4820:	40a60933          	sub	s2,a2,a0
800c4824:	40f70733          	sub	a4,a4,a5
800c4828:	01263633          	sltu	a2,a2,s2
800c482c:	40c709b3          	sub	s3,a4,a2
800c4830:	00030493          	mv	s1,t1
800c4834:	06098a63          	beqz	s3,800c48a8 <__subdf3+0x724>
800c4838:	00098513          	mv	a0,s3
800c483c:	370000ef          	jal	ra,800c4bac <__clzsi2>
800c4840:	ff850793          	addi	a5,a0,-8
800c4844:	02000693          	li	a3,32
800c4848:	40f686b3          	sub	a3,a3,a5
800c484c:	00f99733          	sll	a4,s3,a5
800c4850:	00d956b3          	srl	a3,s2,a3
800c4854:	00e6e6b3          	or	a3,a3,a4
800c4858:	00f919b3          	sll	s3,s2,a5
800c485c:	1087c263          	blt	a5,s0,800c4960 <__subdf3+0x7dc>
800c4860:	408787b3          	sub	a5,a5,s0
800c4864:	00178793          	addi	a5,a5,1 # 80001 <__stack_size+0x7f801>
800c4868:	02000713          	li	a4,32
800c486c:	40f70733          	sub	a4,a4,a5
800c4870:	00e69533          	sll	a0,a3,a4
800c4874:	00f9d633          	srl	a2,s3,a5
800c4878:	00e99733          	sll	a4,s3,a4
800c487c:	00c56533          	or	a0,a0,a2
800c4880:	00e03733          	snez	a4,a4
800c4884:	00e56533          	or	a0,a0,a4
800c4888:	00f6d7b3          	srl	a5,a3,a5
800c488c:	00000413          	li	s0,0
800c4890:	a19ff06f          	j	800c42a8 <__subdf3+0x124>
800c4894:	0136e6b3          	or	a3,a3,s3
800c4898:	f8069ee3          	bnez	a3,800c4834 <__subdf3+0x6b0>
800c489c:	00000793          	li	a5,0
800c48a0:	00000413          	li	s0,0
800c48a4:	10c0006f          	j	800c49b0 <__subdf3+0x82c>
800c48a8:	00090513          	mv	a0,s2
800c48ac:	300000ef          	jal	ra,800c4bac <__clzsi2>
800c48b0:	01850793          	addi	a5,a0,24
800c48b4:	01f00713          	li	a4,31
800c48b8:	f8f756e3          	bge	a4,a5,800c4844 <__subdf3+0x6c0>
800c48bc:	ff850513          	addi	a0,a0,-8
800c48c0:	00a916b3          	sll	a3,s2,a0
800c48c4:	0487c063          	blt	a5,s0,800c4904 <__subdf3+0x780>
800c48c8:	40878533          	sub	a0,a5,s0
800c48cc:	00150793          	addi	a5,a0,1
800c48d0:	f8f75ce3          	bge	a4,a5,800c4868 <__subdf3+0x6e4>
800c48d4:	fe150513          	addi	a0,a0,-31
800c48d8:	02000613          	li	a2,32
800c48dc:	00a6d733          	srl	a4,a3,a0
800c48e0:	00000513          	li	a0,0
800c48e4:	00c78863          	beq	a5,a2,800c48f4 <__subdf3+0x770>
800c48e8:	04000513          	li	a0,64
800c48ec:	40f50533          	sub	a0,a0,a5
800c48f0:	00a69533          	sll	a0,a3,a0
800c48f4:	00a03533          	snez	a0,a0
800c48f8:	00e56533          	or	a0,a0,a4
800c48fc:	00000793          	li	a5,0
800c4900:	f8dff06f          	j	800c488c <__subdf3+0x708>
800c4904:	40f40433          	sub	s0,s0,a5
800c4908:	ff8007b7          	lui	a5,0xff800
800c490c:	fff78793          	addi	a5,a5,-1 # ff7fffff <__stack_top+0x7eafe7ff>
800c4910:	00f6f7b3          	and	a5,a3,a5
800c4914:	01d79693          	slli	a3,a5,0x1d
800c4918:	0037d793          	srli	a5,a5,0x3
800c491c:	01441713          	slli	a4,s0,0x14
800c4920:	7ff00637          	lui	a2,0x7ff00
800c4924:	00c79793          	slli	a5,a5,0xc
800c4928:	01c12083          	lw	ra,28(sp)
800c492c:	01812403          	lw	s0,24(sp)
800c4930:	00c77733          	and	a4,a4,a2
800c4934:	00c7d793          	srli	a5,a5,0xc
800c4938:	01f49493          	slli	s1,s1,0x1f
800c493c:	00f767b3          	or	a5,a4,a5
800c4940:	0097e733          	or	a4,a5,s1
800c4944:	01012903          	lw	s2,16(sp)
800c4948:	01412483          	lw	s1,20(sp)
800c494c:	00c12983          	lw	s3,12(sp)
800c4950:	00068513          	mv	a0,a3
800c4954:	00070593          	mv	a1,a4
800c4958:	02010113          	addi	sp,sp,32
800c495c:	00008067          	ret
800c4960:	40f40433          	sub	s0,s0,a5
800c4964:	ff8007b7          	lui	a5,0xff800
800c4968:	fff78793          	addi	a5,a5,-1 # ff7fffff <__stack_top+0x7eafe7ff>
800c496c:	00f6f7b3          	and	a5,a3,a5
800c4970:	00098513          	mv	a0,s3
800c4974:	935ff06f          	j	800c42a8 <__subdf3+0x124>
800c4978:	00070793          	mv	a5,a4
800c497c:	00060513          	mv	a0,a2
800c4980:	955ff06f          	j	800c42d4 <__subdf3+0x150>
800c4984:	00058413          	mv	s0,a1
800c4988:	921ff06f          	j	800c42a8 <__subdf3+0x124>
800c498c:	01d79713          	slli	a4,a5,0x1d
800c4990:	00355513          	srli	a0,a0,0x3
800c4994:	7ff00613          	li	a2,2047
800c4998:	00a76733          	or	a4,a4,a0
800c499c:	0037d793          	srli	a5,a5,0x3
800c49a0:	02c41863          	bne	s0,a2,800c49d0 <__subdf3+0x84c>
800c49a4:	00f76733          	or	a4,a4,a5
800c49a8:	000807b7          	lui	a5,0x80
800c49ac:	98070ee3          	beqz	a4,800c4348 <__subdf3+0x1c4>
800c49b0:	00000493          	li	s1,0
800c49b4:	f69ff06f          	j	800c491c <__subdf3+0x798>
800c49b8:	00000793          	li	a5,0
800c49bc:	ff5ff06f          	j	800c49b0 <__subdf3+0x82c>
800c49c0:	00000493          	li	s1,0
800c49c4:	7ff00413          	li	s0,2047
800c49c8:	000807b7          	lui	a5,0x80
800c49cc:	f51ff06f          	j	800c491c <__subdf3+0x798>
800c49d0:	00070693          	mv	a3,a4
800c49d4:	f49ff06f          	j	800c491c <__subdf3+0x798>

800c49d8 <__fixunsdfsi>:
800c49d8:	0145d713          	srli	a4,a1,0x14
800c49dc:	00100637          	lui	a2,0x100
800c49e0:	00050693          	mv	a3,a0
800c49e4:	fff60793          	addi	a5,a2,-1 # fffff <__stack_size+0xff7ff>
800c49e8:	7ff77713          	andi	a4,a4,2047
800c49ec:	3fe00513          	li	a0,1022
800c49f0:	00b7f7b3          	and	a5,a5,a1
800c49f4:	01f5d593          	srli	a1,a1,0x1f
800c49f8:	04e55863          	bge	a0,a4,800c4a48 <__fixunsdfsi+0x70>
800c49fc:	00000513          	li	a0,0
800c4a00:	04059663          	bnez	a1,800c4a4c <__fixunsdfsi+0x74>
800c4a04:	41e00593          	li	a1,1054
800c4a08:	fff00513          	li	a0,-1
800c4a0c:	04e5c063          	blt	a1,a4,800c4a4c <__fixunsdfsi+0x74>
800c4a10:	00c7e7b3          	or	a5,a5,a2
800c4a14:	43300613          	li	a2,1075
800c4a18:	40e60633          	sub	a2,a2,a4
800c4a1c:	01f00593          	li	a1,31
800c4a20:	00c5cc63          	blt	a1,a2,800c4a38 <__fixunsdfsi+0x60>
800c4a24:	bed70713          	addi	a4,a4,-1043
800c4a28:	00e797b3          	sll	a5,a5,a4
800c4a2c:	00c6d533          	srl	a0,a3,a2
800c4a30:	00a7e533          	or	a0,a5,a0
800c4a34:	00008067          	ret
800c4a38:	41300693          	li	a3,1043
800c4a3c:	40e68733          	sub	a4,a3,a4
800c4a40:	00e7d533          	srl	a0,a5,a4
800c4a44:	00008067          	ret
800c4a48:	00000513          	li	a0,0
800c4a4c:	00008067          	ret

800c4a50 <__floatunsidf>:
800c4a50:	ff010113          	addi	sp,sp,-16
800c4a54:	00812423          	sw	s0,8(sp)
800c4a58:	00112623          	sw	ra,12(sp)
800c4a5c:	00050413          	mv	s0,a0
800c4a60:	06050263          	beqz	a0,800c4ac4 <__floatunsidf+0x74>
800c4a64:	148000ef          	jal	ra,800c4bac <__clzsi2>
800c4a68:	41e00713          	li	a4,1054
800c4a6c:	00a00793          	li	a5,10
800c4a70:	40a70733          	sub	a4,a4,a0
800c4a74:	04a7c063          	blt	a5,a0,800c4ab4 <__floatunsidf+0x64>
800c4a78:	00b00793          	li	a5,11
800c4a7c:	40a787b3          	sub	a5,a5,a0
800c4a80:	01550513          	addi	a0,a0,21
800c4a84:	00f457b3          	srl	a5,s0,a5
800c4a88:	00a41433          	sll	s0,s0,a0
800c4a8c:	00c12083          	lw	ra,12(sp)
800c4a90:	00040513          	mv	a0,s0
800c4a94:	00c79793          	slli	a5,a5,0xc
800c4a98:	00812403          	lw	s0,8(sp)
800c4a9c:	01471713          	slli	a4,a4,0x14
800c4aa0:	00c7d793          	srli	a5,a5,0xc
800c4aa4:	00f766b3          	or	a3,a4,a5
800c4aa8:	00068593          	mv	a1,a3
800c4aac:	01010113          	addi	sp,sp,16
800c4ab0:	00008067          	ret
800c4ab4:	ff550513          	addi	a0,a0,-11
800c4ab8:	00a417b3          	sll	a5,s0,a0
800c4abc:	00000413          	li	s0,0
800c4ac0:	fcdff06f          	j	800c4a8c <__floatunsidf+0x3c>
800c4ac4:	00000793          	li	a5,0
800c4ac8:	00000713          	li	a4,0
800c4acc:	fc1ff06f          	j	800c4a8c <__floatunsidf+0x3c>

800c4ad0 <__fixunsdfdi>:
800c4ad0:	00100737          	lui	a4,0x100
800c4ad4:	0145d613          	srli	a2,a1,0x14
800c4ad8:	fff70793          	addi	a5,a4,-1 # fffff <__stack_size+0xff7ff>
800c4adc:	7ff67613          	andi	a2,a2,2047
800c4ae0:	3fe00693          	li	a3,1022
800c4ae4:	00b7f7b3          	and	a5,a5,a1
800c4ae8:	06c6dc63          	bge	a3,a2,800c4b60 <__fixunsdfdi+0x90>
800c4aec:	01f5d593          	srli	a1,a1,0x1f
800c4af0:	06059863          	bnez	a1,800c4b60 <__fixunsdfdi+0x90>
800c4af4:	43e00693          	li	a3,1086
800c4af8:	06c6c863          	blt	a3,a2,800c4b68 <__fixunsdfdi+0x98>
800c4afc:	00e7e5b3          	or	a1,a5,a4
800c4b00:	43200793          	li	a5,1074
800c4b04:	02c7d063          	bge	a5,a2,800c4b24 <__fixunsdfdi+0x54>
800c4b08:	ff010113          	addi	sp,sp,-16
800c4b0c:	bcd60613          	addi	a2,a2,-1075
800c4b10:	00112623          	sw	ra,12(sp)
800c4b14:	060000ef          	jal	ra,800c4b74 <__ashldi3>
800c4b18:	00c12083          	lw	ra,12(sp)
800c4b1c:	01010113          	addi	sp,sp,16
800c4b20:	00008067          	ret
800c4b24:	43300793          	li	a5,1075
800c4b28:	40c787b3          	sub	a5,a5,a2
800c4b2c:	01f00713          	li	a4,31
800c4b30:	00f74e63          	blt	a4,a5,800c4b4c <__fixunsdfdi+0x7c>
800c4b34:	bed60613          	addi	a2,a2,-1043
800c4b38:	00c59633          	sll	a2,a1,a2
800c4b3c:	00f55533          	srl	a0,a0,a5
800c4b40:	00a66533          	or	a0,a2,a0
800c4b44:	00f5d5b3          	srl	a1,a1,a5
800c4b48:	00008067          	ret
800c4b4c:	41300513          	li	a0,1043
800c4b50:	40c50533          	sub	a0,a0,a2
800c4b54:	00a5d533          	srl	a0,a1,a0
800c4b58:	00000593          	li	a1,0
800c4b5c:	00008067          	ret
800c4b60:	00000513          	li	a0,0
800c4b64:	ff5ff06f          	j	800c4b58 <__fixunsdfdi+0x88>
800c4b68:	fff00513          	li	a0,-1
800c4b6c:	fff00593          	li	a1,-1
800c4b70:	00008067          	ret

800c4b74 <__ashldi3>:
800c4b74:	02060063          	beqz	a2,800c4b94 <__ashldi3+0x20>
800c4b78:	02000793          	li	a5,32
800c4b7c:	40c787b3          	sub	a5,a5,a2
800c4b80:	00f04c63          	bgtz	a5,800c4b98 <__ashldi3+0x24>
800c4b84:	fe060613          	addi	a2,a2,-32
800c4b88:	00c515b3          	sll	a1,a0,a2
800c4b8c:	00000713          	li	a4,0
800c4b90:	00070513          	mv	a0,a4
800c4b94:	00008067          	ret
800c4b98:	00c51733          	sll	a4,a0,a2
800c4b9c:	00c595b3          	sll	a1,a1,a2
800c4ba0:	00f55533          	srl	a0,a0,a5
800c4ba4:	00a5e5b3          	or	a1,a1,a0
800c4ba8:	fe9ff06f          	j	800c4b90 <__ashldi3+0x1c>

800c4bac <__clzsi2>:
800c4bac:	000107b7          	lui	a5,0x10
800c4bb0:	02f57a63          	bgeu	a0,a5,800c4be4 <__clzsi2+0x38>
800c4bb4:	10053793          	sltiu	a5,a0,256
800c4bb8:	0017c793          	xori	a5,a5,1
800c4bbc:	00379793          	slli	a5,a5,0x3
800c4bc0:	800d1737          	lui	a4,0x800d1
800c4bc4:	02000693          	li	a3,32
800c4bc8:	40f686b3          	sub	a3,a3,a5
800c4bcc:	00f55533          	srl	a0,a0,a5
800c4bd0:	24070793          	addi	a5,a4,576 # 800d1240 <__stack_top+0xff3cfa40>
800c4bd4:	00a787b3          	add	a5,a5,a0
800c4bd8:	0007c503          	lbu	a0,0(a5) # 10000 <__stack_size+0xf800>
800c4bdc:	40a68533          	sub	a0,a3,a0
800c4be0:	00008067          	ret
800c4be4:	01000737          	lui	a4,0x1000
800c4be8:	01000793          	li	a5,16
800c4bec:	fce56ae3          	bltu	a0,a4,800c4bc0 <__clzsi2+0x14>
800c4bf0:	01800793          	li	a5,24
800c4bf4:	fcdff06f          	j	800c4bc0 <__clzsi2+0x14>
